Certificate:
    Data:
        Version: 3 (0x2)
        Serial Number: 1 (0x1)
    Signature Algorithm: sha256WithRSAEncryption
        Issuer: C=SG, ST=SG, L=Singapore, O=SecLab, OU=Web/emailAddress=admin@dummycertlab.com
        Validity
            Not Before: Mar 14 10:02:26 2015 GMT
            Not After : Mar 13 10:02:26 2016 GMT
        Subject: C=SG, ST=SG, O=SecLab, OU=Web, CN=app1.com/emailAddress=admin@app1.com
        Subject Public Key Info:
            Public Key Algorithm: rsaEncryption
                Public-Key: (2048 bit)
                Modulus:
                    00:bb:76:16:40:b4:e1:6f:98:d1:bf:1c:d4:65:b5:
                    35:44:73:3f:74:f0:29:2e:30:5a:c2:6c:c0:b3:79:
                    76:27:4f:e2:9a:33:a5:db:af:3a:05:aa:27:e3:5b:
                    0a:2b:e7:99:dd:21:78:de:83:c1:f3:68:cd:b0:3c:
                    40:ad:fc:32:4d:8f:a2:e9:44:88:29:84:09:b0:e8:
                    bc:52:50:09:28:b6:ce:24:ee:88:ff:0b:b7:7e:67:
                    e0:0d:bf:e8:ec:25:e7:1c:97:e0:97:53:88:2b:ee:
                    df:24:3f:51:a4:06:9c:c3:62:3b:b0:ae:db:31:fc:
                    39:56:e1:8f:8c:e6:65:7c:de:67:e3:bd:02:66:8b:
                    23:95:bc:66:8e:d1:f4:1d:a9:3a:6e:53:10:f8:b1:
                    2e:5c:87:b4:8c:32:9b:2c:8a:2d:1e:cb:e5:e0:59:
                    6d:01:3d:3f:99:12:37:60:33:17:fa:d5:2d:44:0f:
                    d2:66:19:c1:e6:ec:25:de:b0:41:d6:18:84:af:6f:
                    2f:38:46:73:d5:89:fb:29:de:b6:7c:a7:44:75:ca:
                    42:9c:5a:ab:e0:8a:24:d5:b4:f7:d6:00:b0:84:0b:
                    e9:f0:c6:b4:0d:09:0e:2d:5b:98:89:f0:ff:5f:a0:
                    f4:5d:78:87:f1:07:0c:91:aa:ba:21:0a:2e:9b:f5:
                    f2:eb
                Exponent: 65537 (0x10001)
        X509v3 extensions:
            X509v3 Basic Constraints: 
                CA:FALSE
            Netscape Comment: 
                OpenSSL Generated Certificate
            X509v3 Subject Key Identifier: 
                D4:3C:60:B4:33:DE:AB:9D:5A:C6:6A:C7:12:0A:9C:25:20:6C:6D:3E
            X509v3 Authority Key Identifier: 
                keyid:0C:B7:91:C7:E7:0E:7B:17:4C:0C:7B:C4:96:38:C2:38:8E:6A:53:28

    Signature Algorithm: sha256WithRSAEncryption
         69:54:1f:95:07:15:a2:71:fe:45:25:d7:75:83:f5:9c:d2:be:
         8b:ee:08:46:2e:9d:ee:06:12:85:5c:05:06:9e:fa:21:a4:c0:
         c8:81:df:80:36:76:b1:1f:19:90:42:fd:6e:08:da:c4:d3:3c:
         a2:2b:3e:57:15:45:1b:18:4f:89:e4:78:3f:8e:e4:3a:4e:38:
         bc:60:e1:20:03:7a:44:34:91:40:99:ae:84:70:25:f8:00:30:
         c7:a3:d0:30:80:99:c0:31:6e:9e:5f:4e:f1:61:98:fd:fb:f6:
         54:ad:06:4c:09:c2:e0:c8:f3:1a:cb:cc:2e:e5:13:33:23:55:
         24:33:e7:18:ca:9f:89:2e:d0:2a:d1:93:bd:55:24:fd:ad:12:
         6c:e7:90:67:41:41:e5:96:a9:fb:54:1b:95:1e:4c:c1:6a:3a:
         81:ee:ba:31:15:9d:be:bd:85:8d:9c:64:c2:d0:30:66:f5:b1:
         a9:7c:4d:78:24:11:a1:41:77:88:3e:b3:17:1d:d7:3c:f3:6b:
         df:d5:2f:bc:18:f0:14:d6:bb:fa:04:92:99:7e:c9:20:67:dc:
         f3:c3:33:50:09:09:a6:bf:61:d1:dc:66:50:e5:b1:4b:9d:a1:
         11:19:e7:c4:4c:de:ac:e8:0f:46:9e:28:40:5a:7d:27:de:37:
         61:2f:d2:fd
-----BEGIN CERTIFICATE-----
MIID1TCCAr2gAwIBAgIBATANBgkqhkiG9w0BAQsFADB0MQswCQYDVQQGEwJTRzEL
MAkGA1UECAwCU0cxEjAQBgNVBAcMCVNpbmdhcG9yZTEPMA0GA1UECgwGU2VjTGFi
MQwwCgYDVQQLDANXZWIxJTAjBgkqhkiG9w0BCQEWFmFkbWluQGR1bW15Y2VydGxh
Yi5jb20wHhcNMTUwMzE0MTAwMjI2WhcNMTYwMzEzMTAwMjI2WjBrMQswCQYDVQQG
EwJTRzELMAkGA1UECAwCU0cxDzANBgNVBAoMBlNlY0xhYjEMMAoGA1UECwwDV2Vi
MREwDwYDVQQDDAhhcHAxLmNvbTEdMBsGCSqGSIb3DQEJARYOYWRtaW5AYXBwMS5j
b20wggEiMA0GCSqGSIb3DQEBAQUAA4IBDwAwggEKAoIBAQC7dhZAtOFvmNG/HNRl
tTVEcz908CkuMFrCbMCzeXYnT+KaM6XbrzoFqifjWwor55ndIXjeg8HzaM2wPECt
/DJNj6LpRIgphAmw6LxSUAkots4k7oj/C7d+Z+ANv+jsJeccl+CXU4gr7t8kP1Gk
BpzDYjuwrtsx/DlW4Y+M5mV83mfjvQJmiyOVvGaO0fQdqTpuUxD4sS5ch7SMMpss
ii0ey+XgWW0BPT+ZEjdgMxf61S1ED9JmGcHm7CXesEHWGISvby84RnPVifsp3rZ8
p0R1ykKcWqvgiiTVtPfWALCEC+nwxrQNCQ4tW5iJ8P9foPRdeIfxBwyRqrohCi6b
9fLrAgMBAAGjezB5MAkGA1UdEwQCMAAwLAYJYIZIAYb4QgENBB8WHU9wZW5TU0wg
R2VuZXJhdGVkIENlcnRpZmljYXRlMB0GA1UdDgQWBBTUPGC0M96rnVrGascSCpwl
IGxtPjAfBgNVHSMEGDAWgBQMt5HH5w57F0wMe8SWOMI4jmpTKDANBgkqhkiG9w0B
AQsFAAOCAQEAaVQflQcVonH+RSXXdYP1nNK+i+4IRi6d7gYShVwFBp76IaTAyIHf
gDZ2sR8ZkEL9bgjaxNM8ois+VxVFGxhPieR4P47kOk44vGDhIAN6RDSRQJmuhHAl
+AAwx6PQMICZwDFunl9O8WGY/fv2VK0GTAnC4MjzGsvMLuUTMyNVJDPnGMqfiS7Q
KtGTvVUk/a0SbOeQZ0FB5Zap+1QblR5MwWo6ge66MRWdvr2FjZxkwtAwZvWxqXxN
eCQRoUF3iD6zFx3XPPNr39UvvBjwFNa7+gSSmX7JIGfc88MzUAkJpr9h0dxmUOWx
S52hERnnxEzerOgPRp4oQFp9J943YS/S/Q==
-----END CERTIFICATE-----
