Certificate:
    Data:
        Version: 3 (0x2)
        Serial Number: 2 (0x2)
    Signature Algorithm: sha256WithRSAEncryption
        Issuer: C=SG, ST=SG, L=Singapore, O=SecLab, OU=Web/emailAddress=admin@dummycertlab.com
        Validity
            Not Before: Mar 14 11:28:16 2015 GMT
            Not After : Mar 13 11:28:16 2016 GMT
        Subject: C=SG, ST=SG, O=SecLab, OU=Web, CN=app2.com/emailAddress=admin@app2.com
        Subject Public Key Info:
            Public Key Algorithm: rsaEncryption
                Public-Key: (2047 bit)
                Modulus:
                    5e:8c:62:2a:b4:f6:c4:25:ea:94:46:b6:93:71:64:
                    36:e4:06:36:5c:ae:91:e7:07:54:2a:38:a2:6e:96:
                    e7:cd:d6:fa:7a:b7:dd:08:26:34:8a:ad:4e:70:7f:
                    61:fc:30:28:ca:03:4d:39:12:05:54:cd:5c:e9:ad:
                    15:1b:0b:ba:3a:e8:58:fc:7d:39:24:17:e9:7d:9a:
                    34:89:99:1a:c3:ad:0a:b8:f4:a0:73:72:73:17:bc:
                    9e:8f:ba:d0:63:ff:89:ce:d0:ad:aa:11:dc:41:ce:
                    af:54:f5:fd:33:ca:38:db:58:07:54:33:47:d7:8b:
                    fd:97:f4:74:e2:45:3d:ff:b5:c1:2f:97:bc:b2:6a:
                    65:3f:1f:fb:64:ca:d5:70:76:1d:80:d9:25:46:03:
                    90:1d:cf:13:e6:bc:6b:64:1f:39:ae:99:5d:b8:f8:
                    d4:73:36:eb:f9:c3:17:e9:4e:98:c1:07:b2:9f:47:
                    93:45:6f:71:36:a8:59:ed:e5:1b:b9:0a:57:bd:9d:
                    a2:27:f2:03:03:5c:78:01:97:eb:2f:58:54:b1:4e:
                    69:a3:72:bb:a7:03:ea:8e:db:5e:74:66:19:1f:b0:
                    6a:af:cf:8f:8e:a9:c2:72:00:62:25:69:b2:97:52:
                    9a:4d:9b:85:fe:8a:ce:f0:83:41:94:e2:45:75:29:
                    77
                Exponent: 65537 (0x10001)
        X509v3 extensions:
            X509v3 Basic Constraints: 
                CA:FALSE
            Netscape Comment: 
                OpenSSL Generated Certificate
            X509v3 Subject Key Identifier: 
                9A:B3:18:81:42:7D:1E:74:CF:3B:90:46:BB:E3:15:D1:97:27:6F:B9
            X509v3 Authority Key Identifier: 
                keyid:0C:B7:91:C7:E7:0E:7B:17:4C:0C:7B:C4:96:38:C2:38:8E:6A:53:28

    Signature Algorithm: sha256WithRSAEncryption
         9a:0c:7d:d2:54:13:be:f1:fb:11:d1:69:41:90:2c:75:20:8e:
         50:34:2c:4c:eb:2e:55:47:aa:ec:f3:a4:06:3e:e0:1d:bf:f2:
         95:7c:5e:0d:59:9c:35:41:0e:9f:57:08:47:f4:b1:52:94:c8:
         19:7d:92:01:1e:ed:82:b5:69:94:b2:ff:aa:c8:d5:a3:08:44:
         0b:ce:94:ae:59:5a:73:4a:45:e9:b5:53:00:03:35:bf:67:af:
         7d:42:c6:04:e3:47:56:0a:44:5c:1a:cd:fd:97:a2:76:be:8d:
         47:5c:c8:00:53:63:b2:37:87:e9:0c:68:64:10:67:50:7b:d0:
         cd:d7:b0:50:ad:2e:6d:52:35:95:d9:64:93:8d:4c:09:31:67:
         36:d2:58:1c:0b:a0:04:2f:40:92:73:5e:81:16:a1:93:c0:0c:
         02:12:b7:59:1b:a2:b3:a5:b0:45:90:f4:c3:c3:55:89:9c:e0:
         11:1d:a5:31:a0:4a:19:54:14:85:f5:51:f6:2f:62:9a:50:c2:
         5e:6d:35:f8:1f:98:0d:09:a0:0b:ed:47:f7:ff:36:93:db:10:
         a5:fb:a6:fa:8c:ad:c6:96:94:2c:da:e5:b7:6a:60:b1:a4:09:
         39:dc:c6:98:88:41:a0:02:f8:c9:4f:66:4b:ce:f9:73:d5:6e:
         4e:d9:ee:62
-----BEGIN CERTIFICATE-----
MIID1DCCArygAwIBAgIBAjANBgkqhkiG9w0BAQsFADB0MQswCQYDVQQGEwJTRzEL
MAkGA1UECAwCU0cxEjAQBgNVBAcMCVNpbmdhcG9yZTEPMA0GA1UECgwGU2VjTGFi
MQwwCgYDVQQLDANXZWIxJTAjBgkqhkiG9w0BCQEWFmFkbWluQGR1bW15Y2VydGxh
Yi5jb20wHhcNMTUwMzE0MTEyODE2WhcNMTYwMzEzMTEyODE2WjBrMQswCQYDVQQG
EwJTRzELMAkGA1UECAwCU0cxDzANBgNVBAoMBlNlY0xhYjEMMAoGA1UECwwDV2Vi
MREwDwYDVQQDDAhhcHAyLmNvbTEdMBsGCSqGSIb3DQEJARYOYWRtaW5AYXBwMi5j
b20wggEhMA0GCSqGSIb3DQEBAQUAA4IBDgAwggEJAoIBAF6MYiq09sQl6pRGtpNx
ZDbkBjZcrpHnB1QqOKJulufN1vp6t90IJjSKrU5wf2H8MCjKA005EgVUzVzprRUb
C7o66Fj8fTkkF+l9mjSJmRrDrQq49KBzcnMXvJ6PutBj/4nO0K2qEdxBzq9U9f0z
yjjbWAdUM0fXi/2X9HTiRT3/tcEvl7yyamU/H/tkytVwdh2A2SVGA5AdzxPmvGtk
HzmumV24+NRzNuv5wxfpTpjBB7KfR5NFb3E2qFnt5Ru5Cle9naIn8gMDXHgBl+sv
WFSxTmmjcrunA+qO2150ZhkfsGqvz4+OqcJyAGIlabKXUppNm4X+is7wg0GU4kV1
KXcCAwEAAaN7MHkwCQYDVR0TBAIwADAsBglghkgBhvhCAQ0EHxYdT3BlblNTTCBH
ZW5lcmF0ZWQgQ2VydGlmaWNhdGUwHQYDVR0OBBYEFJqzGIFCfR50zzuQRrvjFdGX
J2+5MB8GA1UdIwQYMBaAFAy3kcfnDnsXTAx7xJY4wjiOalMoMA0GCSqGSIb3DQEB
CwUAA4IBAQCaDH3SVBO+8fsR0WlBkCx1II5QNCxM6y5VR6rs86QGPuAdv/KVfF4N
WZw1QQ6fVwhH9LFSlMgZfZIBHu2CtWmUsv+qyNWjCEQLzpSuWVpzSkXptVMAAzW/
Z699QsYE40dWCkRcGs39l6J2vo1HXMgAU2OyN4fpDGhkEGdQe9DN17BQrS5tUjWV
2WSTjUwJMWc20lgcC6AEL0CSc16BFqGTwAwCErdZG6KzpbBFkPTDw1WJnOARHaUx
oEoZVBSF9VH2L2KaUMJebTX4H5gNCaAL7Uf3/zaT2xCl+6b6jK3GlpQs2uW3amCx
pAk53MaYiEGgAvjJT2ZLzvlz1W5O2e5i
-----END CERTIFICATE-----
