Certificate:
    Data:
        Version: 3 (0x2)
        Serial Number: 3 (0x3)
    Signature Algorithm: sha256WithRSAEncryption
        Issuer: C=SG, ST=SG, L=Singapore, O=SecLab, OU=Web/emailAddress=admin@dummycertlab.com
        Validity
            Not Before: Mar 14 11:28:28 2015 GMT
            Not After : Mar 13 11:28:28 2016 GMT
        Subject: C=SG, ST=SG, O=SecLab, OU=Web, CN=app3.com/emailAddress=admin@app3.com
        Subject Public Key Info:
            Public Key Algorithm: rsaEncryption
                Public-Key: (2047 bit)
                Modulus:
                    74:f6:4c:cb:a8:3d:a0:e9:e5:68:fb:4c:c7:dd:d2:
                    7d:b5:df:da:b7:fb:80:e6:8d:a8:07:33:73:a6:78:
                    20:b2:5c:4e:26:30:6c:12:3e:ed:95:48:93:b3:0a:
                    dc:f7:67:c9:f6:55:27:e1:b0:bd:42:ab:7b:39:73:
                    9a:46:ab:29:cb:32:d2:84:24:63:85:57:9c:99:c1:
                    53:2a:f8:7d:bb:13:2c:92:85:26:82:f0:a5:61:37:
                    75:ae:80:71:26:b9:e2:04:b0:62:94:6d:f1:42:07:
                    31:51:fb:c6:a2:b9:2b:c3:5e:9e:9e:40:6e:7d:cf:
                    78:cf:f7:83:cf:08:dd:57:e6:e9:03:ec:0a:0d:f2:
                    48:74:59:78:73:2f:54:1e:1d:87:7e:e5:c7:9a:1c:
                    ad:7b:51:c6:89:e7:3f:4c:27:e1:1f:71:07:c1:7a:
                    18:1e:08:36:d3:7f:84:ec:c9:9d:19:87:2e:6c:eb:
                    b1:38:f9:00:12:5d:2c:f6:15:8a:c6:da:3e:2d:75:
                    a2:72:ce:3d:2a:4c:93:69:f8:3a:47:a8:7c:a5:59:
                    ea:9f:29:31:36:2b:c3:3d:1e:bf:56:a7:ed:d0:40:
                    f1:c5:7f:cd:bf:6f:48:96:4b:f6:25:09:6d:5e:83:
                    8a:24:d9:c3:01:18:7c:75:86:de:be:dd:cf:56:58:
                    3b
                Exponent: 65537 (0x10001)
        X509v3 extensions:
            X509v3 Basic Constraints: 
                CA:FALSE
            Netscape Comment: 
                OpenSSL Generated Certificate
            X509v3 Subject Key Identifier: 
                26:C6:E4:6D:A9:53:18:24:EA:1F:D8:34:B9:2C:B5:20:F2:B5:9B:94
            X509v3 Authority Key Identifier: 
                keyid:0C:B7:91:C7:E7:0E:7B:17:4C:0C:7B:C4:96:38:C2:38:8E:6A:53:28

    Signature Algorithm: sha256WithRSAEncryption
         7e:30:3d:a2:2a:f1:d4:9e:a6:53:82:2f:0f:64:01:fd:56:b7:
         2d:cb:94:ba:3d:c1:72:6c:8a:1b:0b:82:f8:c3:59:af:80:bc:
         4d:f7:d1:04:53:e3:9e:8a:63:be:df:5a:41:c8:6e:42:2f:dc:
         86:c2:bc:fe:fa:56:40:7c:d5:e4:5f:2a:cd:59:5d:71:b7:31:
         0c:17:4d:24:b1:a6:95:48:29:7b:2a:79:6e:aa:2d:f7:00:1e:
         64:b0:9b:83:d2:ad:29:a4:68:57:4e:eb:8e:9e:a7:ab:15:9a:
         bf:4c:01:b3:7d:5f:36:c3:c3:10:84:74:50:eb:2a:e6:fc:bf:
         17:19:a4:7d:bd:97:2d:05:72:28:68:ae:b6:61:62:bf:e3:e7:
         85:f8:7e:1d:81:62:32:ec:97:92:d0:0b:4e:de:46:87:e7:9d:
         64:e6:57:47:d4:19:4d:62:c1:b9:f2:3f:63:7a:47:dc:0e:0e:
         6d:af:40:f4:05:e9:5b:56:4a:15:e2:50:2d:83:6c:1d:3f:4b:
         24:f1:57:06:56:96:3e:68:96:1d:02:07:d0:60:75:9c:98:79:
         27:ea:25:df:f9:d0:73:61:4e:f8:bf:db:21:54:86:c9:a1:83:
         e8:a0:5a:85:2c:42:f1:5f:99:ff:69:54:cf:12:90:9e:92:60:
         30:ff:db:ae
-----BEGIN CERTIFICATE-----
MIID1DCCArygAwIBAgIBAzANBgkqhkiG9w0BAQsFADB0MQswCQYDVQQGEwJTRzEL
MAkGA1UECAwCU0cxEjAQBgNVBAcMCVNpbmdhcG9yZTEPMA0GA1UECgwGU2VjTGFi
MQwwCgYDVQQLDANXZWIxJTAjBgkqhkiG9w0BCQEWFmFkbWluQGR1bW15Y2VydGxh
Yi5jb20wHhcNMTUwMzE0MTEyODI4WhcNMTYwMzEzMTEyODI4WjBrMQswCQYDVQQG
EwJTRzELMAkGA1UECAwCU0cxDzANBgNVBAoMBlNlY0xhYjEMMAoGA1UECwwDV2Vi
MREwDwYDVQQDDAhhcHAzLmNvbTEdMBsGCSqGSIb3DQEJARYOYWRtaW5AYXBwMy5j
b20wggEhMA0GCSqGSIb3DQEBAQUAA4IBDgAwggEJAoIBAHT2TMuoPaDp5Wj7TMfd
0n2139q3+4DmjagHM3OmeCCyXE4mMGwSPu2VSJOzCtz3Z8n2VSfhsL1Cq3s5c5pG
qynLMtKEJGOFV5yZwVMq+H27EyyShSaC8KVhN3WugHEmueIEsGKUbfFCBzFR+8ai
uSvDXp6eQG59z3jP94PPCN1X5ukD7AoN8kh0WXhzL1QeHYd+5ceaHK17UcaJ5z9M
J+EfcQfBehgeCDbTf4TsyZ0Zhy5s67E4+QASXSz2FYrG2j4tdaJyzj0qTJNp+DpH
qHylWeqfKTE2K8M9Hr9Wp+3QQPHFf82/b0iWS/YlCW1eg4ok2cMBGHx1ht6+3c9W
WDsCAwEAAaN7MHkwCQYDVR0TBAIwADAsBglghkgBhvhCAQ0EHxYdT3BlblNTTCBH
ZW5lcmF0ZWQgQ2VydGlmaWNhdGUwHQYDVR0OBBYEFCbG5G2pUxgk6h/YNLkstSDy
tZuUMB8GA1UdIwQYMBaAFAy3kcfnDnsXTAx7xJY4wjiOalMoMA0GCSqGSIb3DQEB
CwUAA4IBAQB+MD2iKvHUnqZTgi8PZAH9Vrcty5S6PcFybIobC4L4w1mvgLxN99EE
U+OeimO+31pByG5CL9yGwrz++lZAfNXkXyrNWV1xtzEMF00ksaaVSCl7Knluqi33
AB5ksJuD0q0ppGhXTuuOnqerFZq/TAGzfV82w8MQhHRQ6yrm/L8XGaR9vZctBXIo
aK62YWK/4+eF+H4dgWIy7JeS0AtO3kaH551k5ldH1BlNYsG58j9jekfcDg5tr0D0
BelbVkoV4lAtg2wdP0sk8VcGVpY+aJYdAgfQYHWcmHkn6iXf+dBzYU74v9shVIbJ
oYPooFqFLELxX5n/aVTPEpCekmAw/9uu
-----END CERTIFICATE-----
