Certificate:
    Data:
        Version: 3 (0x2)
        Serial Number: 4 (0x4)
    Signature Algorithm: sha256WithRSAEncryption
        Issuer: C=SG, ST=SG, L=Singapore, O=SecLab, OU=Web/emailAddress=admin@dummycertlab.com
        Validity
            Not Before: Mar 14 11:28:32 2015 GMT
            Not After : Mar 13 11:28:32 2016 GMT
        Subject: C=SG, ST=SG, O=SecLab, OU=Web, CN=app4.com/emailAddress=admin@app4.com
        Subject Public Key Info:
            Public Key Algorithm: rsaEncryption
                Public-Key: (2047 bit)
                Modulus:
                    63:e4:66:f2:ca:97:b9:3a:d6:04:63:ac:0e:9b:4b:
                    92:78:85:32:da:8e:9e:e2:13:ed:f7:36:5c:2b:08:
                    96:95:ae:ff:06:56:d2:a9:41:b4:21:1f:62:af:a7:
                    44:6d:d1:d7:96:fa:46:1e:27:ce:ad:5b:c0:ce:a0:
                    d3:03:43:85:7c:c5:31:37:94:c2:3c:9d:ef:78:03:
                    5f:b4:8e:d2:84:5d:f9:ac:53:14:b8:81:ae:9d:d0:
                    93:0b:ee:79:7d:4d:24:2b:17:f6:b7:7f:74:be:76:
                    f9:81:52:f5:84:e8:00:97:c1:5b:24:92:99:ef:c5:
                    8e:73:36:cf:6e:e4:c9:41:f9:5c:bb:b2:d7:9c:f0:
                    60:30:cb:c2:81:e8:c9:78:50:8f:3a:1a:82:59:6f:
                    fe:0a:a8:eb:1b:88:d9:e4:a4:a8:e5:d5:07:43:9c:
                    92:70:5c:07:84:9b:98:60:19:29:62:fd:fe:e3:64:
                    7e:6c:4a:45:e9:9f:fa:2c:ef:ca:35:d8:8f:9e:27:
                    d8:52:02:8e:2b:5a:ef:ab:80:06:c0:e6:a5:fd:65:
                    e2:c8:89:b0:41:0b:93:f6:3c:db:cd:db:08:df:1d:
                    74:0b:b9:7a:95:16:9d:e1:5a:96:2c:37:73:05:5a:
                    c3:ae:f2:81:a4:1b:56:4c:b1:8f:c4:30:cd:e3:40:
                    17
                Exponent: 65537 (0x10001)
        X509v3 extensions:
            X509v3 Basic Constraints: 
                CA:FALSE
            Netscape Comment: 
                OpenSSL Generated Certificate
            X509v3 Subject Key Identifier: 
                F3:F1:E1:CB:DE:50:26:C9:95:AB:F1:A2:84:DF:67:07:84:80:68:49
            X509v3 Authority Key Identifier: 
                keyid:0C:B7:91:C7:E7:0E:7B:17:4C:0C:7B:C4:96:38:C2:38:8E:6A:53:28

    Signature Algorithm: sha256WithRSAEncryption
         27:79:a2:b3:42:4c:1f:82:41:48:76:50:80:58:11:db:93:46:
         14:30:96:71:0c:50:04:69:f8:39:41:3d:5c:c2:d7:d4:f4:da:
         88:ac:6e:4a:09:85:e1:b7:b5:4a:8b:8f:36:4a:af:7c:60:a2:
         41:6f:ab:c5:d2:2a:2f:6f:44:26:b6:0a:fc:c5:cc:fa:08:af:
         73:d6:d4:1f:f5:0b:d8:b6:1b:72:89:17:cb:0e:21:26:39:98:
         3e:7c:be:2f:5e:ab:c5:d0:13:f5:99:bb:9a:5c:1b:a5:3f:a1:
         f8:6d:c3:9c:f0:dd:20:8a:1a:3e:b5:fd:af:bb:21:02:b5:48:
         9e:fb:8a:d0:4e:71:62:2c:5e:4a:73:8e:ab:9c:65:22:dd:1b:
         8b:e7:8e:d3:62:d0:28:5c:b9:c2:37:26:b3:2a:7b:16:d1:34:
         f2:7b:36:64:27:b0:32:8e:f1:9d:3a:e0:ef:19:0e:89:cc:1c:
         f4:44:98:1a:c3:c4:ff:1b:0a:d8:dd:b9:71:0f:ae:83:0d:d6:
         b3:39:3f:4e:bc:09:b5:56:9e:5d:e0:3a:f2:83:ee:01:7a:20:
         9d:32:aa:92:bd:3c:c4:56:6b:64:80:3c:d7:a3:ab:23:21:69:
         d8:9a:ec:db:bb:93:94:76:de:ec:61:19:d2:cb:86:a9:80:ea:
         75:62:9e:df
-----BEGIN CERTIFICATE-----
MIID1DCCArygAwIBAgIBBDANBgkqhkiG9w0BAQsFADB0MQswCQYDVQQGEwJTRzEL
MAkGA1UECAwCU0cxEjAQBgNVBAcMCVNpbmdhcG9yZTEPMA0GA1UECgwGU2VjTGFi
MQwwCgYDVQQLDANXZWIxJTAjBgkqhkiG9w0BCQEWFmFkbWluQGR1bW15Y2VydGxh
Yi5jb20wHhcNMTUwMzE0MTEyODMyWhcNMTYwMzEzMTEyODMyWjBrMQswCQYDVQQG
EwJTRzELMAkGA1UECAwCU0cxDzANBgNVBAoMBlNlY0xhYjEMMAoGA1UECwwDV2Vi
MREwDwYDVQQDDAhhcHA0LmNvbTEdMBsGCSqGSIb3DQEJARYOYWRtaW5AYXBwNC5j
b20wggEhMA0GCSqGSIb3DQEBAQUAA4IBDgAwggEJAoIBAGPkZvLKl7k61gRjrA6b
S5J4hTLajp7iE+33NlwrCJaVrv8GVtKpQbQhH2Kvp0Rt0deW+kYeJ86tW8DOoNMD
Q4V8xTE3lMI8ne94A1+0jtKEXfmsUxS4ga6d0JML7nl9TSQrF/a3f3S+dvmBUvWE
6ACXwVskkpnvxY5zNs9u5MlB+Vy7stec8GAwy8KB6Ml4UI86GoJZb/4KqOsbiNnk
pKjl1QdDnJJwXAeEm5hgGSli/f7jZH5sSkXpn/os78o12I+eJ9hSAo4rWu+rgAbA
5qX9ZeLIibBBC5P2PNvN2wjfHXQLuXqVFp3hWpYsN3MFWsOu8oGkG1ZMsY/EMM3j
QBcCAwEAAaN7MHkwCQYDVR0TBAIwADAsBglghkgBhvhCAQ0EHxYdT3BlblNTTCBH
ZW5lcmF0ZWQgQ2VydGlmaWNhdGUwHQYDVR0OBBYEFPPx4cveUCbJlavxooTfZweE
gGhJMB8GA1UdIwQYMBaAFAy3kcfnDnsXTAx7xJY4wjiOalMoMA0GCSqGSIb3DQEB
CwUAA4IBAQAneaKzQkwfgkFIdlCAWBHbk0YUMJZxDFAEafg5QT1cwtfU9NqIrG5K
CYXht7VKi482Sq98YKJBb6vF0iovb0Qmtgr8xcz6CK9z1tQf9QvYthtyiRfLDiEm
OZg+fL4vXqvF0BP1mbuaXBulP6H4bcOc8N0giho+tf2vuyECtUie+4rQTnFiLF5K
c46rnGUi3RuL547TYtAoXLnCNyazKnsW0TTyezZkJ7AyjvGdOuDvGQ6JzBz0RJga
w8T/GwrY3blxD66DDdazOT9OvAm1Vp5d4Dryg+4BeiCdMqqSvTzEVmtkgDzXo6sj
IWnYmuzbu5OUdt7sYRnSy4apgOp1Yp7f
-----END CERTIFICATE-----
