Certificate:
    Data:
        Version: 3 (0x2)
        Serial Number: 5 (0x5)
    Signature Algorithm: sha256WithRSAEncryption
        Issuer: C=SG, ST=SG, L=Singapore, O=SecLab, OU=Web/emailAddress=admin@dummycertlab.com
        Validity
            Not Before: Mar 14 11:28:36 2015 GMT
            Not After : Mar 13 11:28:36 2016 GMT
        Subject: C=SG, ST=SG, O=SecLab, OU=SecLab, CN=app5.com/emailAddress=admin@app5.com
        Subject Public Key Info:
            Public Key Algorithm: rsaEncryption
                Public-Key: (2047 bit)
                Modulus:
                    6f:de:d7:27:c9:dc:26:bb:aa:4c:f0:cf:7c:f7:d3:
                    7e:39:2f:37:59:6b:33:c6:50:ae:d7:fe:f6:5a:25:
                    73:03:be:33:37:d2:5c:a6:49:61:12:7e:c8:8f:59:
                    cf:15:1f:2c:3a:99:12:98:fb:7a:40:00:ad:8a:2f:
                    fa:66:f5:e6:6b:d1:6b:49:00:fd:b4:18:a4:77:07:
                    6d:91:bd:6a:e6:c0:9e:b6:f2:e6:d1:44:52:05:68:
                    f2:27:69:18:90:b4:cf:fa:4f:42:0f:90:1a:b3:78:
                    a1:19:e0:2e:f3:26:9f:9e:50:a3:15:92:05:34:05:
                    3d:3c:20:22:7f:de:93:09:cb:38:2f:e5:d6:e5:9e:
                    50:b7:84:13:7d:86:af:74:bc:47:39:b1:bb:d4:32:
                    46:cb:52:c6:bb:88:34:19:c6:04:de:11:98:67:d2:
                    4e:7d:41:b1:d4:3a:02:97:5e:96:bf:3a:b0:50:c9:
                    4b:cc:2c:46:63:2b:2e:78:1e:30:f0:fa:2b:4d:c5:
                    fb:6f:b7:63:a5:bf:9e:e8:ed:35:76:f0:ae:44:62:
                    cc:a0:b0:71:1c:28:77:4c:ef:1f:d5:43:18:74:d7:
                    38:47:b8:8e:5a:68:1d:e4:10:63:bd:6d:32:29:6e:
                    fc:d8:6d:f5:d7:b3:89:73:d7:cf:45:b7:78:d6:16:
                    7b
                Exponent: 65537 (0x10001)
        X509v3 extensions:
            X509v3 Basic Constraints: 
                CA:FALSE
            Netscape Comment: 
                OpenSSL Generated Certificate
            X509v3 Subject Key Identifier: 
                91:18:4F:24:E2:BF:AB:2F:7B:DC:93:9F:F7:0D:38:A6:00:D9:D3:A1
            X509v3 Authority Key Identifier: 
                keyid:0C:B7:91:C7:E7:0E:7B:17:4C:0C:7B:C4:96:38:C2:38:8E:6A:53:28

    Signature Algorithm: sha256WithRSAEncryption
         8b:ba:2d:c6:6a:2a:6a:db:7b:2d:b1:2d:9b:ad:ad:84:34:a6:
         19:58:92:b4:46:79:5a:60:8e:0d:b0:a1:65:29:4d:1b:a5:e9:
         49:d1:dd:f5:f7:1b:9e:69:f2:34:0a:b7:0a:60:8e:bf:ff:2a:
         7b:39:16:0f:d8:36:8c:7e:c3:12:c4:48:71:80:07:80:5a:af:
         7d:c3:86:9d:cc:6d:f8:4b:2f:b8:15:25:e4:44:9f:d0:a8:8f:
         53:1f:86:0e:5c:60:8e:77:02:ad:af:c4:45:f1:7c:63:14:d5:
         bb:1f:dd:34:1d:f9:b9:9a:dd:1d:dc:ca:ef:91:b8:c1:7b:e2:
         d4:52:e5:51:f8:2b:3f:33:5d:5d:32:7b:c7:6e:4b:d2:a3:c7:
         95:27:60:07:44:28:40:e4:5e:7f:1a:6e:b4:82:de:0a:ca:4c:
         a0:d7:64:a5:86:ed:e6:35:66:85:5e:6f:3e:5f:dc:93:6e:cc:
         1c:e0:b4:9c:47:86:d3:d7:d9:80:25:e8:00:0a:c2:d1:da:ae:
         b4:07:f6:c0:2b:11:8c:ce:c3:92:de:08:46:27:cf:f2:1a:2c:
         81:ef:5d:7c:58:c0:4a:52:3f:a7:d5:f2:fd:81:13:7e:34:a1:
         9b:e4:28:9a:df:75:d9:33:72:29:75:19:98:8f:d7:f1:44:48:
         e6:f6:a4:7d
-----BEGIN CERTIFICATE-----
MIID1zCCAr+gAwIBAgIBBTANBgkqhkiG9w0BAQsFADB0MQswCQYDVQQGEwJTRzEL
MAkGA1UECAwCU0cxEjAQBgNVBAcMCVNpbmdhcG9yZTEPMA0GA1UECgwGU2VjTGFi
MQwwCgYDVQQLDANXZWIxJTAjBgkqhkiG9w0BCQEWFmFkbWluQGR1bW15Y2VydGxh
Yi5jb20wHhcNMTUwMzE0MTEyODM2WhcNMTYwMzEzMTEyODM2WjBuMQswCQYDVQQG
EwJTRzELMAkGA1UECAwCU0cxDzANBgNVBAoMBlNlY0xhYjEPMA0GA1UECwwGU2Vj
TGFiMREwDwYDVQQDDAhhcHA1LmNvbTEdMBsGCSqGSIb3DQEJARYOYWRtaW5AYXBw
NS5jb20wggEhMA0GCSqGSIb3DQEBAQUAA4IBDgAwggEJAoIBAG/e1yfJ3Ca7qkzw
z3z30345LzdZazPGUK7X/vZaJXMDvjM30lymSWESfsiPWc8VHyw6mRKY+3pAAK2K
L/pm9eZr0WtJAP20GKR3B22RvWrmwJ628ubRRFIFaPInaRiQtM/6T0IPkBqzeKEZ
4C7zJp+eUKMVkgU0BT08ICJ/3pMJyzgv5dblnlC3hBN9hq90vEc5sbvUMkbLUsa7
iDQZxgTeEZhn0k59QbHUOgKXXpa/OrBQyUvMLEZjKy54HjDw+itNxftvt2Olv57o
7TV28K5EYsygsHEcKHdM7x/VQxh01zhHuI5aaB3kEGO9bTIpbvzYbfXXs4lz189F
t3jWFnsCAwEAAaN7MHkwCQYDVR0TBAIwADAsBglghkgBhvhCAQ0EHxYdT3BlblNT
TCBHZW5lcmF0ZWQgQ2VydGlmaWNhdGUwHQYDVR0OBBYEFJEYTyTiv6sve9yTn/cN
OKYA2dOhMB8GA1UdIwQYMBaAFAy3kcfnDnsXTAx7xJY4wjiOalMoMA0GCSqGSIb3
DQEBCwUAA4IBAQCLui3Gaipq23stsS2bra2ENKYZWJK0RnlaYI4NsKFlKU0bpelJ
0d319xueafI0CrcKYI6//yp7ORYP2DaMfsMSxEhxgAeAWq99w4adzG34Sy+4FSXk
RJ/QqI9TH4YOXGCOdwKtr8RF8XxjFNW7H900Hfm5mt0d3MrvkbjBe+LUUuVR+Cs/
M11dMnvHbkvSo8eVJ2AHRChA5F5/Gm60gt4Kykyg12Slhu3mNWaFXm8+X9yTbswc
4LScR4bT19mAJegACsLR2q60B/bAKxGMzsOS3ghGJ8/yGiyB7118WMBKUj+n1fL9
gRN+NKGb5Cia33XZM3IpdRmYj9fxREjm9qR9
-----END CERTIFICATE-----
