Certificate:
    Data:
        Version: 3 (0x2)
        Serial Number: 6 (0x6)
    Signature Algorithm: sha256WithRSAEncryption
        Issuer: C=SG, ST=SG, L=Singapore, O=SecLab, OU=Web/emailAddress=admin@dummycertlab.com
        Validity
            Not Before: Mar 14 11:28:40 2015 GMT
            Not After : Mar 13 11:28:40 2016 GMT
        Subject: C=SG, ST=SG, O=SecLab, OU=Web, CN=app6.com/emailAddress=admin@app6.com
        Subject Public Key Info:
            Public Key Algorithm: rsaEncryption
                Public-Key: (2047 bit)
                Modulus:
                    70:62:08:e9:b3:5c:b9:12:aa:c7:7e:fa:d3:02:62:
                    55:d8:67:59:40:04:95:44:a7:37:78:7c:32:48:cc:
                    2f:a8:12:ab:5f:c7:5d:ec:25:85:45:49:ce:5a:70:
                    c6:e5:68:e8:87:19:e5:bf:66:6d:7a:5d:7e:b2:72:
                    bb:a7:48:40:f1:21:6d:ed:40:4e:13:b3:d2:67:8b:
                    b2:d2:2d:b4:c8:3a:67:18:05:69:fa:6c:f8:fe:af:
                    64:fa:0e:88:5e:e1:5a:d0:fc:33:de:30:09:2f:9e:
                    86:46:08:d6:17:ba:14:52:38:fb:6e:7b:e6:01:b8:
                    38:c9:a8:10:84:13:37:95:83:b4:af:7b:c4:40:d6:
                    2c:3d:3b:5b:81:5f:da:55:68:64:0d:1e:14:63:58:
                    42:c6:2c:2c:e3:5b:22:c5:e0:90:0c:00:ea:20:c0:
                    69:b4:98:83:a8:9a:cd:79:03:98:da:67:00:21:ad:
                    23:5e:ca:55:b0:78:6d:47:3b:be:9b:05:b4:cf:fc:
                    48:fd:41:e1:7c:d5:d1:e3:82:f6:8d:d3:e9:73:66:
                    c0:95:90:d5:64:2b:ea:78:4d:f5:f3:2d:92:2a:44:
                    f7:51:c3:2d:dc:28:8d:c4:e7:0a:69:d2:b4:80:60:
                    76:27:54:10:68:79:ce:01:93:a3:b4:c6:70:fa:79:
                    01
                Exponent: 65537 (0x10001)
        X509v3 extensions:
            X509v3 Basic Constraints: 
                CA:FALSE
            Netscape Comment: 
                OpenSSL Generated Certificate
            X509v3 Subject Key Identifier: 
                AB:2C:29:DA:A1:D1:20:DD:70:CB:3A:B7:36:30:1A:F9:12:6C:9F:F2
            X509v3 Authority Key Identifier: 
                keyid:0C:B7:91:C7:E7:0E:7B:17:4C:0C:7B:C4:96:38:C2:38:8E:6A:53:28

    Signature Algorithm: sha256WithRSAEncryption
         b4:1d:be:bf:3e:40:cf:04:a0:a1:d1:c8:cf:26:72:da:aa:eb:
         1a:52:65:ed:3f:a0:13:fc:1b:58:8a:d9:79:0d:ab:16:7d:9c:
         55:ad:6c:20:8c:14:97:e3:49:13:55:cb:15:10:55:43:f9:42:
         29:3b:a8:49:b9:82:6d:93:49:e4:5f:d5:28:24:ec:57:29:d4:
         90:75:a4:90:d4:63:19:35:29:16:2e:ba:2f:92:a4:00:a6:af:
         dd:13:7f:45:c0:11:db:8a:e4:b5:58:0a:fb:54:ad:4a:c3:65:
         35:92:7c:1d:bf:0f:6c:53:ec:45:36:74:1b:c5:72:ea:e9:8a:
         6f:c0:81:b8:4f:c4:ce:ce:cd:2a:1d:c6:2c:d1:f5:50:54:94:
         8d:93:0c:a6:e5:78:e1:35:15:f7:db:33:42:2e:47:77:0e:b3:
         79:7a:9b:03:2a:85:fc:8d:35:d2:5e:34:dd:7e:9e:ad:c2:55:
         aa:40:f8:4f:be:13:70:f3:0a:2a:9a:43:2b:51:3a:d5:37:92:
         fd:28:e6:37:bd:c9:5f:73:49:69:75:d7:33:f0:2c:23:79:91:
         eb:2e:e9:07:a0:d4:31:e9:85:65:42:bc:a9:01:aa:29:03:6f:
         d7:f5:42:85:0a:5a:0f:1d:fb:42:dd:b6:34:3a:00:16:32:f2:
         b3:80:6e:93
-----BEGIN CERTIFICATE-----
MIID1DCCArygAwIBAgIBBjANBgkqhkiG9w0BAQsFADB0MQswCQYDVQQGEwJTRzEL
MAkGA1UECAwCU0cxEjAQBgNVBAcMCVNpbmdhcG9yZTEPMA0GA1UECgwGU2VjTGFi
MQwwCgYDVQQLDANXZWIxJTAjBgkqhkiG9w0BCQEWFmFkbWluQGR1bW15Y2VydGxh
Yi5jb20wHhcNMTUwMzE0MTEyODQwWhcNMTYwMzEzMTEyODQwWjBrMQswCQYDVQQG
EwJTRzELMAkGA1UECAwCU0cxDzANBgNVBAoMBlNlY0xhYjEMMAoGA1UECwwDV2Vi
MREwDwYDVQQDDAhhcHA2LmNvbTEdMBsGCSqGSIb3DQEJARYOYWRtaW5AYXBwNi5j
b20wggEhMA0GCSqGSIb3DQEBAQUAA4IBDgAwggEJAoIBAHBiCOmzXLkSqsd++tMC
YlXYZ1lABJVEpzd4fDJIzC+oEqtfx13sJYVFSc5acMblaOiHGeW/Zm16XX6ycrun
SEDxIW3tQE4Ts9Jni7LSLbTIOmcYBWn6bPj+r2T6Dohe4VrQ/DPeMAkvnoZGCNYX
uhRSOPtue+YBuDjJqBCEEzeVg7Sve8RA1iw9O1uBX9pVaGQNHhRjWELGLCzjWyLF
4JAMAOogwGm0mIOoms15A5jaZwAhrSNeylWweG1HO76bBbTP/Ej9QeF81dHjgvaN
0+lzZsCVkNVkK+p4TfXzLZIqRPdRwy3cKI3E5wpp0rSAYHYnVBBoec4Bk6O0xnD6
eQECAwEAAaN7MHkwCQYDVR0TBAIwADAsBglghkgBhvhCAQ0EHxYdT3BlblNTTCBH
ZW5lcmF0ZWQgQ2VydGlmaWNhdGUwHQYDVR0OBBYEFKssKdqh0SDdcMs6tzYwGvkS
bJ/yMB8GA1UdIwQYMBaAFAy3kcfnDnsXTAx7xJY4wjiOalMoMA0GCSqGSIb3DQEB
CwUAA4IBAQC0Hb6/PkDPBKCh0cjPJnLaqusaUmXtP6AT/BtYitl5DasWfZxVrWwg
jBSX40kTVcsVEFVD+UIpO6hJuYJtk0nkX9UoJOxXKdSQdaSQ1GMZNSkWLrovkqQA
pq/dE39FwBHbiuS1WAr7VK1Kw2U1knwdvw9sU+xFNnQbxXLq6YpvwIG4T8TOzs0q
HcYs0fVQVJSNkwym5XjhNRX32zNCLkd3DrN5epsDKoX8jTXSXjTdfp6twlWqQPhP
vhNw8woqmkMrUTrVN5L9KOY3vclfc0lpddcz8CwjeZHrLukHoNQx6YVlQrypAaop
A2/X9UKFCloPHftC3bY0OgAWMvKzgG6T
-----END CERTIFICATE-----
