Certificate:
    Data:
        Version: 3 (0x2)
        Serial Number: 19 (0x13)
    Signature Algorithm: sha256WithRSAEncryption
        Issuer: C=SG, ST=SG, L=Singapore, O=SecLab, OU=Web/emailAddress=admin@dummycertlab.com
        Validity
            Not Before: Mar 14 11:44:57 2015 GMT
            Not After : Mar 13 11:44:57 2016 GMT
        Subject: C=SG, ST=SG, O=SecLab, OU=Web, CN=app7.com/emailAddress=admin@app7.com
        Subject Public Key Info:
            Public Key Algorithm: rsaEncryption
                Public-Key: (2047 bit)
                Modulus:
                    5f:04:e6:f8:90:37:09:47:01:60:f4:88:10:40:1a:
                    c6:a9:5f:e0:e0:32:4a:1b:5e:a6:11:46:f2:07:9c:
                    15:72:ff:85:be:f4:ec:4d:fc:75:a8:43:ae:ea:32:
                    8a:f6:c8:8c:4d:21:8c:73:8f:db:e7:b7:52:52:51:
                    77:47:f4:fa:a6:6d:60:89:f9:f1:28:6b:30:98:db:
                    08:74:a2:90:e7:ef:81:c3:be:47:d9:a3:4b:ea:2f:
                    4b:ca:09:f9:09:69:78:21:e8:3c:97:c1:e5:1e:cb:
                    6f:23:72:68:d0:6f:b7:77:fa:e0:22:d1:66:25:a5:
                    65:2c:8f:4d:c9:01:d2:ed:e3:b9:05:c3:09:ef:04:
                    d1:ac:de:4b:2a:94:56:13:e1:46:79:7f:61:88:75:
                    9a:e1:20:8d:5f:ae:dd:ce:49:49:4c:ac:f4:cd:cc:
                    3f:06:40:c9:77:ab:2c:54:08:12:2c:b4:74:a9:52:
                    83:e5:72:05:3f:01:5d:82:d4:37:3c:ba:a5:11:5e:
                    1a:cd:4d:2f:0b:30:1d:53:80:28:ad:25:2d:ee:e7:
                    27:53:f3:80:c4:2b:4e:18:c6:67:15:57:73:db:4f:
                    fb:d5:1e:e7:68:52:7c:ca:b0:00:f0:f3:65:d1:45:
                    3a:5b:8d:6d:9b:c5:84:43:04:b2:74:09:7b:91:04:
                    1d
                Exponent: 65537 (0x10001)
        X509v3 extensions:
            X509v3 Basic Constraints: 
                CA:FALSE
            Netscape Comment: 
                OpenSSL Generated Certificate
            X509v3 Subject Key Identifier: 
                BC:71:55:56:E3:62:87:72:E2:5B:90:3C:D3:2E:80:CD:1E:B3:B8:A9
            X509v3 Authority Key Identifier: 
                keyid:0C:B7:91:C7:E7:0E:7B:17:4C:0C:7B:C4:96:38:C2:38:8E:6A:53:28

    Signature Algorithm: sha256WithRSAEncryption
         4c:5d:43:e3:5d:22:1f:79:f2:80:79:85:ac:c1:2d:b3:c4:a3:
         8f:d8:1e:2e:51:25:c7:be:e3:e6:dc:2b:39:f7:3e:e9:88:d1:
         72:8c:3d:a9:dc:3a:54:31:45:e9:9d:43:2f:a2:35:d6:ea:1d:
         73:82:4f:c9:c7:9c:64:e5:6f:73:1a:1e:92:5f:5e:6a:5c:cb:
         f5:21:48:26:4f:39:0e:2f:cc:5d:d4:b2:99:8c:37:31:6e:3d:
         e4:d6:4c:39:3e:4a:18:34:93:10:e6:ea:f4:f5:9c:8a:fc:68:
         3f:d9:2a:f9:f9:61:fc:53:a7:d0:ba:19:bd:0f:33:e5:f5:f2:
         7c:43:ae:37:91:5f:5c:8b:bc:7c:4f:fe:e7:3c:6f:63:ef:f0:
         65:2a:f5:33:69:90:e6:29:c3:e8:fe:0e:76:d5:c2:15:f0:e5:
         89:e6:f2:40:f9:7d:30:8e:d2:4c:5d:bb:2b:21:40:78:2e:78:
         c1:65:27:93:a9:c4:13:59:3c:6c:62:87:96:1b:a3:50:15:e7:
         67:28:53:8c:82:db:45:7d:18:34:1a:52:9d:3c:a1:f0:f4:c6:
         3b:19:82:a9:a7:99:13:3f:2a:b0:11:94:c2:ec:60:b0:5a:5c:
         fd:1f:b7:85:7b:4e:09:46:4a:cd:88:8c:76:b2:d2:55:da:3a:
         84:a4:48:e3
-----BEGIN CERTIFICATE-----
MIID1DCCArygAwIBAgIBEzANBgkqhkiG9w0BAQsFADB0MQswCQYDVQQGEwJTRzEL
MAkGA1UECAwCU0cxEjAQBgNVBAcMCVNpbmdhcG9yZTEPMA0GA1UECgwGU2VjTGFi
MQwwCgYDVQQLDANXZWIxJTAjBgkqhkiG9w0BCQEWFmFkbWluQGR1bW15Y2VydGxh
Yi5jb20wHhcNMTUwMzE0MTE0NDU3WhcNMTYwMzEzMTE0NDU3WjBrMQswCQYDVQQG
EwJTRzELMAkGA1UECAwCU0cxDzANBgNVBAoMBlNlY0xhYjEMMAoGA1UECwwDV2Vi
MREwDwYDVQQDDAhhcHA3LmNvbTEdMBsGCSqGSIb3DQEJARYOYWRtaW5AYXBwNy5j
b20wggEhMA0GCSqGSIb3DQEBAQUAA4IBDgAwggEJAoIBAF8E5viQNwlHAWD0iBBA
GsapX+DgMkobXqYRRvIHnBVy/4W+9OxN/HWoQ67qMor2yIxNIYxzj9vnt1JSUXdH
9PqmbWCJ+fEoazCY2wh0opDn74HDvkfZo0vqL0vKCfkJaXgh6DyXweUey28jcmjQ
b7d3+uAi0WYlpWUsj03JAdLt47kFwwnvBNGs3ksqlFYT4UZ5f2GIdZrhII1frt3O
SUlMrPTNzD8GQMl3qyxUCBIstHSpUoPlcgU/AV2C1Dc8uqURXhrNTS8LMB1TgCit
JS3u5ydT84DEK04YxmcVV3PbT/vVHudoUnzKsADw82XRRTpbjW2bxYRDBLJ0CXuR
BB0CAwEAAaN7MHkwCQYDVR0TBAIwADAsBglghkgBhvhCAQ0EHxYdT3BlblNTTCBH
ZW5lcmF0ZWQgQ2VydGlmaWNhdGUwHQYDVR0OBBYEFLxxVVbjYody4luQPNMugM0e
s7ipMB8GA1UdIwQYMBaAFAy3kcfnDnsXTAx7xJY4wjiOalMoMA0GCSqGSIb3DQEB
CwUAA4IBAQBMXUPjXSIfefKAeYWswS2zxKOP2B4uUSXHvuPm3Cs59z7piNFyjD2p
3DpUMUXpnUMvojXW6h1zgk/Jx5xk5W9zGh6SX15qXMv1IUgmTzkOL8xd1LKZjDcx
bj3k1kw5PkoYNJMQ5ur09ZyK/Gg/2Sr5+WH8U6fQuhm9DzPl9fJ8Q643kV9ci7x8
T/7nPG9j7/BlKvUzaZDmKcPo/g521cIV8OWJ5vJA+X0wjtJMXbsrIUB4LnjBZSeT
qcQTWTxsYoeWG6NQFednKFOMgttFfRg0GlKdPKHw9MY7GYKpp5kTPyqwEZTC7GCw
Wlz9H7eFe04JRkrNiIx2stJV2jqEpEjj
-----END CERTIFICATE-----
