Certificate:
    Data:
        Version: 3 (0x2)
        Serial Number: 16 (0x10)
    Signature Algorithm: sha256WithRSAEncryption
        Issuer: C=SG, ST=SG, L=Singapore, O=SecLab, OU=Web/emailAddress=admin@dummycertlab.com
        Validity
            Not Before: Mar 14 11:37:53 2015 GMT
            Not After : Mar 13 11:37:53 2016 GMT
        Subject: C=SG, ST=SG, O=SecLab, OU=Web, CN=app8.com/emailAddress=admin@app8.com
        Subject Public Key Info:
            Public Key Algorithm: rsaEncryption
                Public-Key: (2047 bit)
                Modulus:
                    62:14:71:01:8a:a7:bf:f9:df:ff:69:7b:b5:a5:99:
                    47:cb:9e:0b:40:73:8e:3a:1b:41:07:fc:13:06:2e:
                    35:a8:4c:61:b8:4d:98:87:3b:df:ee:0d:92:41:50:
                    1f:3c:a5:75:3d:1c:47:e5:a0:20:81:e8:2f:83:7a:
                    ba:85:9b:61:13:2a:a8:9e:79:ee:16:58:c3:97:cb:
                    57:3f:f5:b0:55:9f:2a:8a:85:e2:5f:91:86:e4:10:
                    65:20:d7:bb:df:8e:8a:6e:9e:bc:a6:49:a2:b3:73:
                    66:29:1f:bb:9e:08:6e:9b:19:83:6c:47:65:60:ad:
                    2a:e5:98:b5:e4:fa:91:e5:cd:6a:bd:70:92:ed:f8:
                    0e:fd:62:48:f3:d4:d8:f4:fe:25:84:53:5e:18:90:
                    44:03:99:12:40:36:2e:84:d9:f2:d4:d5:f0:5e:18:
                    0d:e0:f9:2f:b2:92:97:e7:df:c2:75:29:a7:0d:81:
                    a0:ab:b8:08:69:9f:43:d5:c6:c2:18:0a:1d:7a:a1:
                    ae:54:a8:95:85:56:32:fb:67:a1:a2:6b:0b:24:b4:
                    8d:5a:26:9c:4d:78:72:29:03:a0:a4:9e:cc:88:6a:
                    5b:54:fd:e8:a5:83:7d:ee:3e:61:50:62:b6:b8:02:
                    21:97:9b:87:9d:c0:57:07:ca:94:d4:1d:22:bd:e2:
                    51
                Exponent: 65537 (0x10001)
        X509v3 extensions:
            X509v3 Basic Constraints: 
                CA:FALSE
            Netscape Comment: 
                OpenSSL Generated Certificate
            X509v3 Subject Key Identifier: 
                BE:99:8C:04:50:A2:C3:57:C1:77:4D:34:49:E1:5A:DF:79:EB:57:D3
            X509v3 Authority Key Identifier: 
                keyid:0C:B7:91:C7:E7:0E:7B:17:4C:0C:7B:C4:96:38:C2:38:8E:6A:53:28

    Signature Algorithm: sha256WithRSAEncryption
         bc:ed:95:37:47:e3:c9:1a:0a:e5:9b:77:0f:65:94:32:a0:0d:
         f9:e7:e1:cc:57:2f:91:e8:d0:62:1c:f0:b1:da:15:b7:97:c7:
         28:aa:ad:12:ec:9b:a9:0a:49:45:de:f4:09:83:19:33:a8:1f:
         5f:34:e9:78:7d:ac:33:64:19:fc:49:c2:db:30:aa:91:4b:f2:
         22:1a:1e:96:ae:cc:b7:0d:e3:32:59:58:4c:d9:ae:48:59:07:
         37:c6:aa:38:86:e3:3a:84:0d:ae:be:a9:a8:14:fc:7a:65:b8:
         16:5d:42:40:cc:b0:03:3a:49:92:df:cd:d0:d4:3a:e8:72:78:
         fb:1c:5f:1a:4c:12:f1:13:54:9a:c1:77:5c:bf:1a:af:9b:b0:
         c5:f1:a7:cf:d7:4e:ea:68:d4:14:c2:5d:11:97:3c:6c:74:a2:
         8c:35:cb:35:80:bb:1f:0b:42:46:83:fa:b2:57:02:2e:2e:7c:
         4d:a6:dc:84:2f:65:f3:32:d1:f4:81:5e:47:f1:25:3e:1f:5b:
         46:bb:12:7c:a3:e7:a7:d7:8c:35:0b:aa:55:3b:c4:e3:07:af:
         5e:5f:87:0b:17:62:80:de:2b:ac:04:0d:4d:45:ee:83:f9:9e:
         14:e1:d3:52:72:41:eb:33:c7:ed:89:f0:88:df:7a:59:67:55:
         7a:3d:a5:c9
-----BEGIN CERTIFICATE-----
MIID1DCCArygAwIBAgIBEDANBgkqhkiG9w0BAQsFADB0MQswCQYDVQQGEwJTRzEL
MAkGA1UECAwCU0cxEjAQBgNVBAcMCVNpbmdhcG9yZTEPMA0GA1UECgwGU2VjTGFi
MQwwCgYDVQQLDANXZWIxJTAjBgkqhkiG9w0BCQEWFmFkbWluQGR1bW15Y2VydGxh
Yi5jb20wHhcNMTUwMzE0MTEzNzUzWhcNMTYwMzEzMTEzNzUzWjBrMQswCQYDVQQG
EwJTRzELMAkGA1UECAwCU0cxDzANBgNVBAoMBlNlY0xhYjEMMAoGA1UECwwDV2Vi
MREwDwYDVQQDDAhhcHA4LmNvbTEdMBsGCSqGSIb3DQEJARYOYWRtaW5AYXBwOC5j
b20wggEhMA0GCSqGSIb3DQEBAQUAA4IBDgAwggEJAoIBAGIUcQGKp7/53/9pe7Wl
mUfLngtAc446G0EH/BMGLjWoTGG4TZiHO9/uDZJBUB88pXU9HEfloCCB6C+DerqF
m2ETKqieee4WWMOXy1c/9bBVnyqKheJfkYbkEGUg17vfjopunrymSaKzc2YpH7ue
CG6bGYNsR2VgrSrlmLXk+pHlzWq9cJLt+A79Ykjz1Nj0/iWEU14YkEQDmRJANi6E
2fLU1fBeGA3g+S+ykpfn38J1KacNgaCruAhpn0PVxsIYCh16oa5UqJWFVjL7Z6Gi
awsktI1aJpxNeHIpA6CknsyIaltU/eilg33uPmFQYra4AiGXm4edwFcHypTUHSK9
4lECAwEAAaN7MHkwCQYDVR0TBAIwADAsBglghkgBhvhCAQ0EHxYdT3BlblNTTCBH
ZW5lcmF0ZWQgQ2VydGlmaWNhdGUwHQYDVR0OBBYEFL6ZjARQosNXwXdNNEnhWt95
61fTMB8GA1UdIwQYMBaAFAy3kcfnDnsXTAx7xJY4wjiOalMoMA0GCSqGSIb3DQEB
CwUAA4IBAQC87ZU3R+PJGgrlm3cPZZQyoA355+HMVy+R6NBiHPCx2hW3l8coqq0S
7JupCklF3vQJgxkzqB9fNOl4fawzZBn8ScLbMKqRS/IiGh6Wrsy3DeMyWVhM2a5I
WQc3xqo4huM6hA2uvqmoFPx6ZbgWXUJAzLADOkmS383Q1Drocnj7HF8aTBLxE1Sa
wXdcvxqvm7DF8afP107qaNQUwl0RlzxsdKKMNcs1gLsfC0JGg/qyVwIuLnxNptyE
L2XzMtH0gV5H8SU+H1tGuxJ8o+en14w1C6pVO8TjB69eX4cLF2KA3iusBA1NRe6D
+Z4U4dNSckHrM8ftifCI33pZZ1V6PaXJ
-----END CERTIFICATE-----
