Certificate:
    Data:
        Version: 3 (0x2)
        Serial Number: 7 (0x7)
    Signature Algorithm: sha256WithRSAEncryption
        Issuer: C=SG, ST=SG, L=Singapore, O=SecLab, OU=Web/emailAddress=admin@dummycertlab.com
        Validity
            Not Before: Mar 14 11:29:48 2015 GMT
            Not After : Mar 13 11:29:48 2016 GMT
        Subject: C=SG, ST=SG, O=SecLab, OU=Web, CN=app10.com/emailAddress=admin@app10.com
        Subject Public Key Info:
            Public Key Algorithm: rsaEncryption
                Public-Key: (2047 bit)
                Modulus:
                    63:e0:79:e8:ca:f3:a4:15:dc:44:c2:45:fc:03:f6:
                    19:2e:76:03:83:d2:a2:90:1a:a6:97:c4:7a:68:64:
                    38:c9:21:6a:16:03:e7:96:68:9b:e0:5f:02:32:0c:
                    bf:97:fc:13:d8:73:75:4f:7a:42:bf:42:24:46:cf:
                    0f:a4:c3:87:0b:23:26:32:5d:7f:47:b2:06:2a:7c:
                    4c:57:4b:d8:68:5a:5f:93:f4:b2:53:49:e3:48:cb:
                    3f:69:85:9d:c0:8e:f7:e1:46:9c:b0:53:cb:6d:25:
                    41:8d:38:f5:8d:a1:0e:b2:91:03:8f:d3:90:7b:22:
                    b2:45:df:a3:72:66:2a:77:2f:6d:c1:c8:db:bc:29:
                    b3:b5:2a:fd:50:fe:c9:72:63:23:69:c7:dc:4e:7b:
                    e4:5b:e6:2b:52:c5:79:86:46:71:08:9d:8e:0c:00:
                    ea:16:31:5d:9f:a2:ae:fd:55:35:de:fb:ad:5f:7a:
                    71:06:83:d8:b5:67:85:33:b0:31:09:72:21:d1:60:
                    fb:44:95:d7:fd:a8:f1:e8:09:25:fc:34:cc:9a:19:
                    e6:25:85:bc:d9:ab:0e:fa:10:0e:6f:91:15:b1:29:
                    8d:19:1f:60:53:78:29:cb:bd:ca:48:c2:2e:ab:8e:
                    ce:97:5c:fb:65:35:8d:66:e0:2e:67:ab:15:58:0f:
                    fb
                Exponent: 65537 (0x10001)
        X509v3 extensions:
            X509v3 Basic Constraints: 
                CA:FALSE
            Netscape Comment: 
                OpenSSL Generated Certificate
            X509v3 Subject Key Identifier: 
                8C:75:F5:37:79:D3:B8:9C:26:B5:68:D2:97:38:DC:88:82:AB:14:7E
            X509v3 Authority Key Identifier: 
                keyid:0C:B7:91:C7:E7:0E:7B:17:4C:0C:7B:C4:96:38:C2:38:8E:6A:53:28

    Signature Algorithm: sha256WithRSAEncryption
         a7:61:3a:88:a5:10:7f:ab:12:de:c7:83:39:f8:45:f9:8b:de:
         e4:5b:2b:da:b1:6a:74:d8:59:ac:9f:fb:ad:fd:73:27:1c:74:
         60:9c:71:28:fe:a1:9e:ca:ed:44:8f:4f:b6:af:95:99:5f:2b:
         c3:00:61:50:8f:00:ee:9d:47:cf:cf:75:e7:08:f4:f2:71:9d:
         4b:e0:65:22:6b:67:81:7b:97:b2:3f:dc:af:24:c9:cb:d2:c8:
         c4:03:59:24:08:99:7d:81:53:25:a7:d3:da:e3:45:0b:02:16:
         15:ed:c1:76:39:16:ad:aa:2b:5f:ee:31:8c:83:fa:52:b4:b1:
         45:d2:c5:f7:a5:bc:3b:84:19:d5:b2:b8:f7:09:61:6a:5d:bd:
         81:98:1c:57:c2:69:87:27:f3:5d:93:c5:55:0b:24:42:f3:0d:
         d7:9a:fa:8c:61:bb:c2:0c:83:ae:8d:2c:40:52:67:84:b8:bb:
         9b:47:a1:e6:06:a6:5e:af:52:d0:73:f5:87:25:51:2f:72:75:
         46:eb:00:28:53:f6:c7:dc:5d:e8:d0:38:e1:05:fa:de:58:4c:
         7c:5c:2a:41:c2:fd:0d:3f:58:95:47:29:67:d2:91:ef:f5:9a:
         84:f1:78:83:d6:8b:32:fc:80:bd:14:8e:e6:97:4b:f5:55:4d:
         97:39:55:19
-----BEGIN CERTIFICATE-----
MIID1jCCAr6gAwIBAgIBBzANBgkqhkiG9w0BAQsFADB0MQswCQYDVQQGEwJTRzEL
MAkGA1UECAwCU0cxEjAQBgNVBAcMCVNpbmdhcG9yZTEPMA0GA1UECgwGU2VjTGFi
MQwwCgYDVQQLDANXZWIxJTAjBgkqhkiG9w0BCQEWFmFkbWluQGR1bW15Y2VydGxh
Yi5jb20wHhcNMTUwMzE0MTEyOTQ4WhcNMTYwMzEzMTEyOTQ4WjBtMQswCQYDVQQG
EwJTRzELMAkGA1UECAwCU0cxDzANBgNVBAoMBlNlY0xhYjEMMAoGA1UECwwDV2Vi
MRIwEAYDVQQDDAlhcHAxMC5jb20xHjAcBgkqhkiG9w0BCQEWD2FkbWluQGFwcDEw
LmNvbTCCASEwDQYJKoZIhvcNAQEBBQADggEOADCCAQkCggEAY+B56MrzpBXcRMJF
/AP2GS52A4PSopAappfEemhkOMkhahYD55Zom+BfAjIMv5f8E9hzdU96Qr9CJEbP
D6TDhwsjJjJdf0eyBip8TFdL2GhaX5P0slNJ40jLP2mFncCO9+FGnLBTy20lQY04
9Y2hDrKRA4/TkHsiskXfo3JmKncvbcHI27wps7Uq/VD+yXJjI2nH3E575FvmK1LF
eYZGcQidjgwA6hYxXZ+irv1VNd77rV96cQaD2LVnhTOwMQlyIdFg+0SV1/2o8egJ
Jfw0zJoZ5iWFvNmrDvoQDm+RFbEpjRkfYFN4Kcu9ykjCLquOzpdc+2U1jWbgLmer
FVgP+wIDAQABo3sweTAJBgNVHRMEAjAAMCwGCWCGSAGG+EIBDQQfFh1PcGVuU1NM
IEdlbmVyYXRlZCBDZXJ0aWZpY2F0ZTAdBgNVHQ4EFgQUjHX1N3nTuJwmtWjSlzjc
iIKrFH4wHwYDVR0jBBgwFoAUDLeRx+cOexdMDHvEljjCOI5qUygwDQYJKoZIhvcN
AQELBQADggEBAKdhOoilEH+rEt7Hgzn4RfmL3uRbK9qxanTYWayf+639cyccdGCc
cSj+oZ7K7USPT7avlZlfK8MAYVCPAO6dR8/PdecI9PJxnUvgZSJrZ4F7l7I/3K8k
ycvSyMQDWSQImX2BUyWn09rjRQsCFhXtwXY5Fq2qK1/uMYyD+lK0sUXSxfelvDuE
GdWyuPcJYWpdvYGYHFfCaYcn812TxVULJELzDdea+oxhu8IMg66NLEBSZ4S4u5tH
oeYGpl6vUtBz9YclUS9ydUbrAChT9sfcXejQOOEF+t5YTHxcKkHC/Q0/WJVHKWfS
ke/1moTxeIPWizL8gL0UjuaXS/VVTZc5VRk=
-----END CERTIFICATE-----
