Certificate:
    Data:
        Version: 3 (0x2)
        Serial Number: 8 (0x8)
    Signature Algorithm: sha256WithRSAEncryption
        Issuer: C=SG, ST=SG, L=Singapore, O=SecLab, OU=Web/emailAddress=admin@dummycertlab.com
        Validity
            Not Before: Mar 14 11:29:55 2015 GMT
            Not After : Mar 13 11:29:55 2016 GMT
        Subject: C=SG, ST=SG, O=SecLab, OU=Web, CN=app11.com/emailAddress=admin@app1.com
        Subject Public Key Info:
            Public Key Algorithm: rsaEncryption
                Public-Key: (2047 bit)
                Modulus:
                    58:ff:5d:0c:6c:2b:39:79:f4:fb:ac:f7:9a:e6:7a:
                    19:9f:f1:00:bf:b2:2b:6b:d1:cb:52:d5:86:ea:f0:
                    6b:6c:0e:a3:bf:34:e7:73:63:ce:c1:a3:f3:21:52:
                    d5:b1:fe:a5:29:b5:cd:8e:e9:20:b4:fa:04:4f:47:
                    a6:ed:79:86:01:eb:b9:ca:29:87:9c:98:eb:60:f4:
                    27:4d:cd:df:96:cc:cf:c9:40:14:28:b3:5e:db:87:
                    5f:0d:f2:26:3a:6c:6f:98:ff:0e:09:1c:e9:29:c8:
                    c8:c3:d8:77:f3:7a:29:92:9c:a3:ac:e3:eb:ad:d5:
                    55:84:bc:3c:fc:1a:37:22:8b:3d:8c:ec:be:0f:09:
                    e8:c9:60:59:f3:a5:86:47:ab:ad:8d:36:1a:cb:e6:
                    00:2f:53:c0:42:05:0b:f4:7b:fc:f3:e0:7e:db:5c:
                    40:8a:88:2d:d0:53:1f:de:9c:68:3e:f8:16:51:6c:
                    68:2d:51:b0:b3:ec:77:29:54:c7:a4:58:ba:7e:60:
                    f5:60:e9:78:fa:e0:bb:3f:40:00:14:a1:3e:3b:44:
                    0e:6f:64:b4:90:e5:9b:0d:f5:7f:a7:be:66:c8:5f:
                    f1:50:f6:5d:ce:82:ed:e3:62:1e:30:8b:46:e1:02:
                    b3:26:24:e7:de:14:20:2b:82:43:6f:e8:0f:59:51:
                    4f
                Exponent: 65537 (0x10001)
        X509v3 extensions:
            X509v3 Basic Constraints: 
                CA:FALSE
            Netscape Comment: 
                OpenSSL Generated Certificate
            X509v3 Subject Key Identifier: 
                CB:D8:06:05:44:AB:AA:E6:B5:7D:20:F6:A2:4B:1A:96:F8:39:C3:C8
            X509v3 Authority Key Identifier: 
                keyid:0C:B7:91:C7:E7:0E:7B:17:4C:0C:7B:C4:96:38:C2:38:8E:6A:53:28

    Signature Algorithm: sha256WithRSAEncryption
         66:48:41:bc:d6:bd:a6:06:a3:78:03:ab:4e:98:3f:ce:d2:31:
         c4:b6:e4:01:e0:61:48:54:5c:6e:08:10:89:84:77:55:c7:86:
         9d:11:5b:90:9c:ff:8c:39:92:25:d8:af:0c:df:cd:11:e3:6a:
         8d:67:63:55:49:71:5b:95:d5:3f:a0:f3:34:40:f6:b6:b7:b0:
         42:83:f3:4f:e9:b6:a0:c5:a0:08:d0:5f:22:89:b8:b2:51:e5:
         58:36:c6:d4:d0:a1:27:44:27:56:b2:02:22:b3:09:bd:17:09:
         bc:d8:57:2e:10:92:cf:db:92:3e:1d:80:9e:46:27:bd:23:5f:
         6f:a3:07:b5:95:e7:6c:d4:b6:51:7e:91:76:74:64:52:62:50:
         84:a9:b8:47:20:76:91:85:28:1c:70:67:e0:32:b7:fb:8f:00:
         fe:a9:19:39:42:f6:22:43:42:aa:03:6e:62:7b:15:d9:5e:e9:
         7c:0c:de:58:d7:c3:9e:ce:2e:94:bb:f3:44:9c:b3:68:f5:24:
         b5:35:67:48:9e:35:a4:89:5b:66:67:ee:e1:33:96:31:ad:8e:
         2b:db:2a:03:90:36:72:91:a2:0b:15:6e:c9:f4:31:ab:6a:b1:
         9e:43:6d:a0:f9:92:3f:72:34:7f:74:79:8e:9a:e2:ed:73:85:
         28:a1:8d:1a
-----BEGIN CERTIFICATE-----
MIID1TCCAr2gAwIBAgIBCDANBgkqhkiG9w0BAQsFADB0MQswCQYDVQQGEwJTRzEL
MAkGA1UECAwCU0cxEjAQBgNVBAcMCVNpbmdhcG9yZTEPMA0GA1UECgwGU2VjTGFi
MQwwCgYDVQQLDANXZWIxJTAjBgkqhkiG9w0BCQEWFmFkbWluQGR1bW15Y2VydGxh
Yi5jb20wHhcNMTUwMzE0MTEyOTU1WhcNMTYwMzEzMTEyOTU1WjBsMQswCQYDVQQG
EwJTRzELMAkGA1UECAwCU0cxDzANBgNVBAoMBlNlY0xhYjEMMAoGA1UECwwDV2Vi
MRIwEAYDVQQDDAlhcHAxMS5jb20xHTAbBgkqhkiG9w0BCQEWDmFkbWluQGFwcDEu
Y29tMIIBITANBgkqhkiG9w0BAQEFAAOCAQ4AMIIBCQKCAQBY/10MbCs5efT7rPea
5noZn/EAv7Ira9HLUtWG6vBrbA6jvzTnc2POwaPzIVLVsf6lKbXNjukgtPoET0em
7XmGAeu5yimHnJjrYPQnTc3flszPyUAUKLNe24dfDfImOmxvmP8OCRzpKcjIw9h3
83opkpyjrOPrrdVVhLw8/Bo3Ios9jOy+DwnoyWBZ86WGR6utjTYay+YAL1PAQgUL
9Hv88+B+21xAiogt0FMf3pxoPvgWUWxoLVGws+x3KVTHpFi6fmD1YOl4+uC7P0AA
FKE+O0QOb2S0kOWbDfV/p75myF/xUPZdzoLt42IeMItG4QKzJiTn3hQgK4JDb+gP
WVFPAgMBAAGjezB5MAkGA1UdEwQCMAAwLAYJYIZIAYb4QgENBB8WHU9wZW5TU0wg
R2VuZXJhdGVkIENlcnRpZmljYXRlMB0GA1UdDgQWBBTL2AYFRKuq5rV9IPaiSxqW
+DnDyDAfBgNVHSMEGDAWgBQMt5HH5w57F0wMe8SWOMI4jmpTKDANBgkqhkiG9w0B
AQsFAAOCAQEAZkhBvNa9pgajeAOrTpg/ztIxxLbkAeBhSFRcbggQiYR3VceGnRFb
kJz/jDmSJdivDN/NEeNqjWdjVUlxW5XVP6DzNED2trewQoPzT+m2oMWgCNBfIom4
slHlWDbG1NChJ0QnVrICIrMJvRcJvNhXLhCSz9uSPh2AnkYnvSNfb6MHtZXnbNS2
UX6RdnRkUmJQhKm4RyB2kYUoHHBn4DK3+48A/qkZOUL2IkNCqgNuYnsV2V7pfAze
WNfDns4ulLvzRJyzaPUktTVnSJ41pIlbZmfu4TOWMa2OK9sqA5A2cpGiCxVuyfQx
q2qxnkNtoPmSP3I0f3R5jpri7XOFKKGNGg==
-----END CERTIFICATE-----
