Certificate:
    Data:
        Version: 3 (0x2)
        Serial Number: 9 (0x9)
    Signature Algorithm: sha256WithRSAEncryption
        Issuer: C=SG, ST=SG, L=Singapore, O=SecLab, OU=Web/emailAddress=admin@dummycertlab.com
        Validity
            Not Before: Mar 14 11:29:58 2015 GMT
            Not After : Mar 13 11:29:58 2016 GMT
        Subject: C=SG, ST=SG, O=SecLab, OU=Web, CN=app12.com/emailAddress=admin@app12.com
        Subject Public Key Info:
            Public Key Algorithm: rsaEncryption
                Public-Key: (2047 bit)
                Modulus:
                    5c:8b:38:00:5f:df:7f:1b:c7:a0:4c:6f:b4:3b:9e:
                    05:01:5f:01:4f:cd:73:bf:58:99:45:bd:57:66:e9:
                    0c:b2:33:b7:65:54:54:c3:70:8f:6e:1c:12:5e:33:
                    c5:2e:59:c4:a9:1b:de:2d:f0:e0:38:02:ce:63:67:
                    5b:41:1e:b5:0a:ce:8e:ff:d7:69:1f:99:4f:64:7e:
                    69:ba:b6:de:20:96:98:57:ea:7f:d0:52:98:c1:df:
                    72:dd:13:55:4c:4e:d9:6b:fb:5e:46:ff:e2:b3:71:
                    43:8b:ee:8d:73:be:df:58:39:9d:9c:01:17:52:a0:
                    e0:c8:83:14:b5:d7:06:5f:53:13:10:1f:db:08:ac:
                    13:99:46:1e:bb:19:e7:33:cf:3f:26:fe:53:59:f0:
                    38:89:1e:61:ed:bb:13:07:be:32:4b:08:d1:b9:09:
                    2b:ba:74:32:1b:29:e0:44:8c:d8:cf:25:71:01:a3:
                    6a:42:80:1d:13:fe:3e:4b:ba:db:91:76:52:81:36:
                    6a:7f:17:3b:82:75:f9:1e:ee:d2:00:5f:64:62:8f:
                    51:0e:b1:45:a2:eb:dc:0c:e5:2d:6e:dd:4a:6d:18:
                    c7:81:0a:03:08:cd:54:76:25:f5:4f:fe:f4:1c:95:
                    7a:7e:af:de:32:2c:85:7c:ac:9c:cc:9a:63:6d:24:
                    65
                Exponent: 65537 (0x10001)
        X509v3 extensions:
            X509v3 Basic Constraints: 
                CA:FALSE
            Netscape Comment: 
                OpenSSL Generated Certificate
            X509v3 Subject Key Identifier: 
                49:52:35:5C:4C:C9:F7:C9:F7:76:D6:24:52:C4:F6:05:01:7A:9D:09
            X509v3 Authority Key Identifier: 
                keyid:0C:B7:91:C7:E7:0E:7B:17:4C:0C:7B:C4:96:38:C2:38:8E:6A:53:28

    Signature Algorithm: sha256WithRSAEncryption
         d7:f7:b4:5b:30:ea:83:ac:f6:98:f4:66:72:27:4a:4e:01:d1:
         7d:9e:44:c2:db:67:18:99:6d:a0:b3:72:7a:9f:a4:35:76:ae:
         41:c7:4e:64:09:dd:48:4b:44:41:da:d7:5b:0e:47:8b:cf:3b:
         c3:6c:61:a5:5f:99:35:41:73:90:0d:63:6f:ea:55:fd:b7:da:
         41:f3:34:80:d9:d2:ca:08:85:ef:ad:d1:0e:bd:a6:7c:6e:b9:
         bf:17:47:9a:5e:8d:b6:e6:07:db:0e:10:3c:e1:39:bb:a2:39:
         30:71:09:cf:4c:f4:47:f5:46:78:df:52:49:59:e1:9e:ce:5a:
         4e:64:8f:24:9a:99:ba:d4:d9:80:de:2d:40:32:ac:13:38:f8:
         d3:e3:ac:76:24:5e:32:8a:aa:ff:24:1d:5b:46:b5:5c:ae:00:
         48:15:05:4c:4a:d8:a1:dc:ed:be:53:55:ac:58:57:3f:28:73:
         c6:73:2d:c3:79:8e:7a:83:7b:2f:5c:bf:7e:13:45:ae:43:a9:
         4a:c5:a3:c1:8b:68:c6:4c:f5:bd:60:12:d1:65:c1:dd:fa:11:
         e8:68:f5:78:54:f0:9b:15:38:8f:09:c1:48:30:5b:7f:8f:fb:
         7a:fc:79:8f:c0:8c:88:70:71:93:5d:42:d4:33:0f:76:97:55:
         7e:07:d7:2f
-----BEGIN CERTIFICATE-----
MIID1jCCAr6gAwIBAgIBCTANBgkqhkiG9w0BAQsFADB0MQswCQYDVQQGEwJTRzEL
MAkGA1UECAwCU0cxEjAQBgNVBAcMCVNpbmdhcG9yZTEPMA0GA1UECgwGU2VjTGFi
MQwwCgYDVQQLDANXZWIxJTAjBgkqhkiG9w0BCQEWFmFkbWluQGR1bW15Y2VydGxh
Yi5jb20wHhcNMTUwMzE0MTEyOTU4WhcNMTYwMzEzMTEyOTU4WjBtMQswCQYDVQQG
EwJTRzELMAkGA1UECAwCU0cxDzANBgNVBAoMBlNlY0xhYjEMMAoGA1UECwwDV2Vi
MRIwEAYDVQQDDAlhcHAxMi5jb20xHjAcBgkqhkiG9w0BCQEWD2FkbWluQGFwcDEy
LmNvbTCCASEwDQYJKoZIhvcNAQEBBQADggEOADCCAQkCggEAXIs4AF/ffxvHoExv
tDueBQFfAU/Nc79YmUW9V2bpDLIzt2VUVMNwj24cEl4zxS5ZxKkb3i3w4DgCzmNn
W0EetQrOjv/XaR+ZT2R+abq23iCWmFfqf9BSmMHfct0TVUxO2Wv7Xkb/4rNxQ4vu
jXO+31g5nZwBF1Kg4MiDFLXXBl9TExAf2wisE5lGHrsZ5zPPPyb+U1nwOIkeYe27
Ewe+MksI0bkJK7p0Mhsp4ESM2M8lcQGjakKAHRP+Pku625F2UoE2an8XO4J1+R7u
0gBfZGKPUQ6xRaLr3AzlLW7dSm0Yx4EKAwjNVHYl9U/+9ByVen6v3jIshXysnMya
Y20kZQIDAQABo3sweTAJBgNVHRMEAjAAMCwGCWCGSAGG+EIBDQQfFh1PcGVuU1NM
IEdlbmVyYXRlZCBDZXJ0aWZpY2F0ZTAdBgNVHQ4EFgQUSVI1XEzJ98n3dtYkUsT2
BQF6nQkwHwYDVR0jBBgwFoAUDLeRx+cOexdMDHvEljjCOI5qUygwDQYJKoZIhvcN
AQELBQADggEBANf3tFsw6oOs9pj0ZnInSk4B0X2eRMLbZxiZbaCzcnqfpDV2rkHH
TmQJ3UhLREHa11sOR4vPO8NsYaVfmTVBc5ANY2/qVf232kHzNIDZ0soIhe+t0Q69
pnxuub8XR5pejbbmB9sOEDzhObuiOTBxCc9M9Ef1RnjfUklZ4Z7OWk5kjySambrU
2YDeLUAyrBM4+NPjrHYkXjKKqv8kHVtGtVyuAEgVBUxK2KHc7b5TVaxYVz8oc8Zz
LcN5jnqDey9cv34TRa5DqUrFo8GLaMZM9b1gEtFlwd36Eeho9XhU8JsVOI8JwUgw
W3+P+3r8eY/AjIhwcZNdQtQzD3aXVX4H1y8=
-----END CERTIFICATE-----
