Certificate:
    Data:
        Version: 3 (0x2)
        Serial Number: 21 (0x15)
    Signature Algorithm: sha256WithRSAEncryption
        Issuer: C=SG, ST=SG, L=Singapore, O=SecLab, OU=Web/emailAddress=admin@dummycertlab.com
        Validity
            Not Before: Mar 14 11:45:18 2015 GMT
            Not After : Mar 13 11:45:18 2016 GMT
        Subject: C=SG, ST=SG, O=SecLab, OU=Web, CN=app13.com/emailAddress=admin@app13.com
        Subject Public Key Info:
            Public Key Algorithm: rsaEncryption
                Public-Key: (2047 bit)
                Modulus:
                    4f:09:8f:bf:42:4d:08:b8:c5:19:ef:42:97:c9:da:
                    7d:78:3d:dc:86:49:75:82:55:70:7e:8e:78:89:89:
                    3f:0f:44:7d:9a:58:0f:f2:1e:f9:96:aa:a1:13:3c:
                    6a:68:1b:a8:db:08:a9:47:73:f2:d4:33:9e:f6:88:
                    c9:fc:93:bf:16:ab:75:48:8c:56:2e:c0:d6:9c:f1:
                    59:ca:39:6a:71:32:ec:17:99:c8:97:7e:28:77:69:
                    50:ca:f3:20:18:b9:88:8d:ed:6c:d6:f0:13:dd:ab:
                    32:de:a2:18:d3:a3:be:97:88:7f:25:a7:e9:d8:6d:
                    d4:2d:c3:19:19:dd:30:f7:a4:91:99:9d:7c:b5:56:
                    a0:26:ac:8a:df:bd:96:18:89:aa:09:73:5e:40:f2:
                    26:51:9e:f2:3b:48:25:a3:7a:de:21:9d:fc:03:05:
                    0d:e1:02:54:d1:3e:4a:d8:9a:74:84:c4:76:a4:36:
                    fe:da:67:d9:11:f7:57:0c:12:bc:40:47:a3:aa:98:
                    1a:c7:97:45:c2:3f:ec:2c:9d:42:9d:d4:56:cf:54:
                    7d:07:1e:a3:a7:34:a7:97:6b:c8:50:5e:c8:65:c5:
                    78:9b:34:1f:c6:c3:34:2d:ca:26:e5:10:3f:94:6a:
                    4b:d8:48:09:51:b1:3e:d1:56:9c:fa:a0:f6:c3:b2:
                    25
                Exponent: 65537 (0x10001)
        X509v3 extensions:
            X509v3 Basic Constraints: 
                CA:FALSE
            Netscape Comment: 
                OpenSSL Generated Certificate
            X509v3 Subject Key Identifier: 
                34:CD:DD:2C:26:C1:96:C6:FC:62:F2:98:C9:92:B6:B5:10:15:FA:5C
            X509v3 Authority Key Identifier: 
                keyid:0C:B7:91:C7:E7:0E:7B:17:4C:0C:7B:C4:96:38:C2:38:8E:6A:53:28

    Signature Algorithm: sha256WithRSAEncryption
         a8:88:ef:2b:a3:23:4e:57:50:ba:44:c5:03:9d:91:91:89:ab:
         db:3b:23:f7:8f:59:a3:99:7d:19:1a:28:d9:aa:dc:5a:85:e2:
         0c:ca:31:4e:4f:54:05:bc:61:ac:35:97:59:c8:33:15:76:b3:
         70:f2:0e:9e:8c:79:13:81:95:d0:29:da:0a:83:ca:b8:40:f1:
         fb:00:f2:d9:6a:5a:c9:1c:65:fe:53:57:f3:b4:4e:ed:72:75:
         64:b7:75:2b:dc:76:d3:68:ca:17:aa:47:be:ee:76:4d:7d:1f:
         79:31:c3:24:f2:55:b2:24:f2:ed:14:ca:42:83:16:3f:f6:10:
         65:83:cb:f9:e6:a9:b2:0c:03:8d:ba:c0:fc:b0:87:41:76:86:
         5c:aa:10:02:9e:f0:06:eb:3b:ad:10:2a:a3:29:24:09:23:97:
         7b:85:75:1a:b9:d1:f8:cb:55:15:75:d2:05:3a:8a:ae:bc:44:
         65:55:ee:5f:4e:59:79:e0:3b:8a:d9:4d:28:63:33:5f:3c:08:
         3d:45:f3:69:c3:68:fa:9c:bb:8e:c3:03:74:b0:38:b9:49:63:
         65:f8:36:25:9c:d1:59:bc:fd:b3:e6:1a:4a:e3:71:4e:0e:af:
         57:13:02:15:ce:4d:66:7c:82:86:ab:68:e3:1f:47:ac:f5:d5:
         ca:3f:6d:2c
-----BEGIN CERTIFICATE-----
MIID1jCCAr6gAwIBAgIBFTANBgkqhkiG9w0BAQsFADB0MQswCQYDVQQGEwJTRzEL
MAkGA1UECAwCU0cxEjAQBgNVBAcMCVNpbmdhcG9yZTEPMA0GA1UECgwGU2VjTGFi
MQwwCgYDVQQLDANXZWIxJTAjBgkqhkiG9w0BCQEWFmFkbWluQGR1bW15Y2VydGxh
Yi5jb20wHhcNMTUwMzE0MTE0NTE4WhcNMTYwMzEzMTE0NTE4WjBtMQswCQYDVQQG
EwJTRzELMAkGA1UECAwCU0cxDzANBgNVBAoMBlNlY0xhYjEMMAoGA1UECwwDV2Vi
MRIwEAYDVQQDDAlhcHAxMy5jb20xHjAcBgkqhkiG9w0BCQEWD2FkbWluQGFwcDEz
LmNvbTCCASEwDQYJKoZIhvcNAQEBBQADggEOADCCAQkCggEATwmPv0JNCLjFGe9C
l8nafXg93IZJdYJVcH6OeImJPw9EfZpYD/Ie+ZaqoRM8amgbqNsIqUdz8tQznvaI
yfyTvxardUiMVi7A1pzxWco5anEy7BeZyJd+KHdpUMrzIBi5iI3tbNbwE92rMt6i
GNOjvpeIfyWn6dht1C3DGRndMPekkZmdfLVWoCasit+9lhiJqglzXkDyJlGe8jtI
JaN63iGd/AMFDeECVNE+StiadITEdqQ2/tpn2RH3VwwSvEBHo6qYGseXRcI/7Cyd
Qp3UVs9UfQceo6c0p5dryFBeyGXFeJs0H8bDNC3KJuUQP5RqS9hICVGxPtFWnPqg
9sOyJQIDAQABo3sweTAJBgNVHRMEAjAAMCwGCWCGSAGG+EIBDQQfFh1PcGVuU1NM
IEdlbmVyYXRlZCBDZXJ0aWZpY2F0ZTAdBgNVHQ4EFgQUNM3dLCbBlsb8YvKYyZK2
tRAV+lwwHwYDVR0jBBgwFoAUDLeRx+cOexdMDHvEljjCOI5qUygwDQYJKoZIhvcN
AQELBQADggEBAKiI7yujI05XULpExQOdkZGJq9s7I/ePWaOZfRkaKNmq3FqF4gzK
MU5PVAW8Yaw1l1nIMxV2s3DyDp6MeROBldAp2gqDyrhA8fsA8tlqWskcZf5TV/O0
Tu1ydWS3dSvcdtNoyheqR77udk19H3kxwyTyVbIk8u0UykKDFj/2EGWDy/nmqbIM
A426wPywh0F2hlyqEAKe8AbrO60QKqMpJAkjl3uFdRq50fjLVRV10gU6iq68RGVV
7l9OWXngO4rZTShjM188CD1F82nDaPqcu47DA3SwOLlJY2X4NiWc0Vm8/bPmGkrj
cU4Or1cTAhXOTWZ8goaraOMfR6z11co/bSw=
-----END CERTIFICATE-----
