Certificate:
    Data:
        Version: 3 (0x2)
        Serial Number: 17 (0x11)
    Signature Algorithm: sha256WithRSAEncryption
        Issuer: C=SG, ST=SG, L=Singapore, O=SecLab, OU=Web/emailAddress=admin@dummycertlab.com
        Validity
            Not Before: Mar 14 11:39:03 2015 GMT
            Not After : Mar 13 11:39:03 2016 GMT
        Subject: C=SG, ST=SG, O=SecLab, OU=Web, CN=app14.com/emailAddress=admin@app14.com
        Subject Public Key Info:
            Public Key Algorithm: rsaEncryption
                Public-Key: (2047 bit)
                Modulus:
                    76:e5:f1:90:5d:d7:8d:7b:ee:cc:6d:ea:36:a5:e7:
                    a1:c2:bd:81:84:b1:5f:2b:5c:e0:0c:b1:13:8c:50:
                    a5:f3:d7:fd:fe:b6:7e:53:2e:bf:13:a3:9c:48:7a:
                    fa:df:e9:67:d6:95:ad:0c:4d:33:17:b2:4d:46:87:
                    33:37:89:a1:33:1f:b2:78:3d:70:ed:f8:66:4d:ef:
                    a7:fc:bc:f6:bc:a7:98:30:da:00:ed:b3:74:7d:66:
                    cb:b3:f9:72:f0:38:c6:24:7f:75:29:f3:2a:e1:3e:
                    cf:2b:aa:69:31:98:58:cc:a4:bc:ac:de:cc:c0:67:
                    b2:31:a3:b3:ec:7f:69:ea:07:fe:41:f5:88:52:5c:
                    31:c0:f3:ec:12:05:7a:01:3b:d0:33:38:b6:9e:b4:
                    aa:e3:50:d4:78:3c:51:10:e4:cc:48:67:7b:57:19:
                    39:85:31:92:77:5e:c4:a1:ef:9e:94:31:5d:f5:b5:
                    70:2b:07:87:c4:f3:51:d7:f3:6d:09:fa:a4:54:8d:
                    0a:e0:a8:7e:aa:56:67:2c:32:dd:87:38:63:79:f7:
                    0a:ee:5d:59:f5:17:c5:cd:db:d6:34:75:03:92:3e:
                    c1:5e:c4:de:62:f6:06:3f:28:4a:c2:d8:51:1b:ce:
                    af:c2:10:79:26:ad:a0:19:44:e4:cd:09:c4:55:fa:
                    5f
                Exponent: 65537 (0x10001)
        X509v3 extensions:
            X509v3 Basic Constraints: 
                CA:FALSE
            Netscape Comment: 
                OpenSSL Generated Certificate
            X509v3 Subject Key Identifier: 
                3F:91:95:3D:F5:63:04:7D:0C:9A:5B:43:D3:5C:C2:D4:FF:98:D1:07
            X509v3 Authority Key Identifier: 
                keyid:0C:B7:91:C7:E7:0E:7B:17:4C:0C:7B:C4:96:38:C2:38:8E:6A:53:28

    Signature Algorithm: sha256WithRSAEncryption
         0a:ec:ae:8b:ef:c5:76:e6:5a:95:02:31:82:e4:d8:44:be:8c:
         2b:a4:36:43:85:10:7c:56:85:85:b4:71:d5:2e:ae:dc:dc:89:
         e0:c4:70:8f:d1:d2:ed:92:6f:f3:0d:5d:0f:86:41:46:8a:a5:
         83:47:bc:f5:85:48:00:e1:da:3c:ce:c8:15:3d:2e:64:89:35:
         f4:6a:86:e1:33:f7:53:a2:8a:0c:29:ca:b4:dd:0b:07:1d:bb:
         da:70:4b:21:4e:02:88:05:b9:68:17:ac:92:26:70:0b:e2:f9:
         3a:f1:a1:b3:76:03:47:50:e4:17:ed:90:2e:19:6d:7f:c7:1c:
         78:a4:16:9d:0f:d1:42:20:34:bf:cc:80:95:c2:75:55:9f:b8:
         8d:03:78:97:d4:b5:4f:6b:b3:c5:24:ae:c5:68:dc:4c:2e:26:
         30:a8:20:c1:d0:a2:dd:e0:0e:ae:c2:d0:c0:34:55:22:b0:be:
         28:76:5b:0c:22:8a:ac:d2:71:f2:bf:34:b5:b2:49:bd:86:73:
         20:cf:5c:82:f0:84:f1:5b:0a:22:0d:7b:f1:49:54:24:02:b4:
         65:a6:b6:63:2d:1e:38:93:2b:0b:66:27:4e:84:35:c7:d3:9a:
         e6:c7:df:ce:52:4b:f9:cf:22:c4:1e:57:b4:14:56:ad:32:00:
         3e:fa:d3:ec
-----BEGIN CERTIFICATE-----
MIID1jCCAr6gAwIBAgIBETANBgkqhkiG9w0BAQsFADB0MQswCQYDVQQGEwJTRzEL
MAkGA1UECAwCU0cxEjAQBgNVBAcMCVNpbmdhcG9yZTEPMA0GA1UECgwGU2VjTGFi
MQwwCgYDVQQLDANXZWIxJTAjBgkqhkiG9w0BCQEWFmFkbWluQGR1bW15Y2VydGxh
Yi5jb20wHhcNMTUwMzE0MTEzOTAzWhcNMTYwMzEzMTEzOTAzWjBtMQswCQYDVQQG
EwJTRzELMAkGA1UECAwCU0cxDzANBgNVBAoMBlNlY0xhYjEMMAoGA1UECwwDV2Vi
MRIwEAYDVQQDDAlhcHAxNC5jb20xHjAcBgkqhkiG9w0BCQEWD2FkbWluQGFwcDE0
LmNvbTCCASEwDQYJKoZIhvcNAQEBBQADggEOADCCAQkCggEAduXxkF3XjXvuzG3q
NqXnocK9gYSxXytc4AyxE4xQpfPX/f62flMuvxOjnEh6+t/pZ9aVrQxNMxeyTUaH
MzeJoTMfsng9cO34Zk3vp/y89rynmDDaAO2zdH1my7P5cvA4xiR/dSnzKuE+zyuq
aTGYWMykvKzezMBnsjGjs+x/aeoH/kH1iFJcMcDz7BIFegE70DM4tp60quNQ1Hg8
URDkzEhne1cZOYUxkndexKHvnpQxXfW1cCsHh8TzUdfzbQn6pFSNCuCofqpWZywy
3Yc4Y3n3Cu5dWfUXxc3b1jR1A5I+wV7E3mL2Bj8oSsLYURvOr8IQeSatoBlE5M0J
xFX6XwIDAQABo3sweTAJBgNVHRMEAjAAMCwGCWCGSAGG+EIBDQQfFh1PcGVuU1NM
IEdlbmVyYXRlZCBDZXJ0aWZpY2F0ZTAdBgNVHQ4EFgQUP5GVPfVjBH0MmltD01zC
1P+Y0QcwHwYDVR0jBBgwFoAUDLeRx+cOexdMDHvEljjCOI5qUygwDQYJKoZIhvcN
AQELBQADggEBAArsrovvxXbmWpUCMYLk2ES+jCukNkOFEHxWhYW0cdUurtzcieDE
cI/R0u2Sb/MNXQ+GQUaKpYNHvPWFSADh2jzOyBU9LmSJNfRqhuEz91OiigwpyrTd
Cwcdu9pwSyFOAogFuWgXrJImcAvi+TrxobN2A0dQ5BftkC4ZbX/HHHikFp0P0UIg
NL/MgJXCdVWfuI0DeJfUtU9rs8UkrsVo3EwuJjCoIMHQot3gDq7C0MA0VSKwvih2
WwwiiqzScfK/NLWySb2GcyDPXILwhPFbCiINe/FJVCQCtGWmtmMtHjiTKwtmJ06E
NcfTmubH385SS/nPIsQeV7QUVq0yAD760+w=
-----END CERTIFICATE-----
