Certificate:
    Data:
        Version: 3 (0x2)
        Serial Number: 11 (0xb)
    Signature Algorithm: sha256WithRSAEncryption
        Issuer: C=SG, ST=SG, L=Singapore, O=SecLab, OU=Web/emailAddress=admin@dummycertlab.com
        Validity
            Not Before: Mar 14 11:30:15 2015 GMT
            Not After : Mar 13 11:30:15 2016 GMT
        Subject: C=SG, ST=SG, O=SecLab, OU=app15.com, CN=app15.com/emailAddress=admin@app15.com
        Subject Public Key Info:
            Public Key Algorithm: rsaEncryption
                Public-Key: (2047 bit)
                Modulus:
                    58:b8:ad:94:b0:bc:ec:10:e9:6e:eb:a9:28:63:9f:
                    64:2c:46:84:de:5c:9e:76:d1:6a:5a:5b:7c:30:bc:
                    35:20:7d:9c:37:02:b8:48:2b:a0:86:f6:80:95:25:
                    6f:68:0c:fb:e2:32:61:a7:ae:74:03:7a:f9:c2:bc:
                    64:83:35:9a:ed:e0:ce:97:0c:49:47:e2:9d:0a:b2:
                    bd:25:1b:b5:ea:05:d1:50:c9:39:bf:5e:f5:c0:d6:
                    ef:ba:13:ca:44:53:71:2b:23:f3:c4:cf:ee:c7:64:
                    5d:bb:85:97:f6:c7:a0:a3:52:bb:1a:53:02:8e:9a:
                    4f:38:4d:c2:b0:bb:46:96:d0:89:8c:2c:79:ed:9c:
                    b0:25:c5:3c:d5:ab:26:0f:17:99:d0:13:1d:6b:7a:
                    58:1b:9e:84:0c:96:eb:73:22:ff:c5:b4:8f:1e:b3:
                    27:3e:ce:06:7d:59:85:fe:94:07:56:66:d1:1e:a5:
                    e0:4f:f9:1f:67:6b:4f:b4:47:a8:79:b9:b9:b5:15:
                    61:83:ab:fa:0b:8f:c0:d4:ac:46:a3:a8:51:11:ff:
                    8c:ce:40:3d:fb:35:bb:8f:22:5d:4d:26:a1:6d:24:
                    fe:d6:8e:d2:cd:eb:a8:d7:a2:f0:4f:5f:55:e5:8b:
                    8a:ce:36:08:9b:e4:eb:13:5a:8d:74:a4:c4:86:2c:
                    f1
                Exponent: 65537 (0x10001)
        X509v3 extensions:
            X509v3 Basic Constraints: 
                CA:FALSE
            Netscape Comment: 
                OpenSSL Generated Certificate
            X509v3 Subject Key Identifier: 
                0D:75:E5:5F:10:1A:80:B9:2C:71:5A:C0:B7:D6:F9:9D:BC:A2:15:55
            X509v3 Authority Key Identifier: 
                keyid:0C:B7:91:C7:E7:0E:7B:17:4C:0C:7B:C4:96:38:C2:38:8E:6A:53:28

    Signature Algorithm: sha256WithRSAEncryption
         86:17:62:66:c0:15:fb:99:84:81:29:54:e2:af:6f:51:c4:15:
         97:61:c9:56:48:51:08:7a:31:88:02:49:f7:f8:dc:0f:2e:31:
         44:80:39:0c:f2:2c:5d:c6:88:7e:92:81:55:a8:c7:2f:e2:94:
         d3:75:3b:8b:2a:12:94:e6:83:d0:5a:24:05:44:24:d4:5f:55:
         15:0e:13:b0:90:4e:7e:e2:29:8e:d1:e7:55:dc:2e:eb:a7:a3:
         f5:33:d5:4d:34:b4:de:ac:9b:8d:14:d5:1a:fb:18:7c:8f:0b:
         45:c6:34:1b:d0:56:f4:03:35:fb:bd:27:54:a0:45:a1:c3:c3:
         d9:aa:fe:16:e3:46:a4:de:5d:fe:75:de:56:e8:61:0b:b0:a2:
         d4:83:5b:d7:85:d1:c8:ea:c9:8c:47:a9:a7:68:44:1f:3c:c7:
         86:9a:36:58:8f:cd:38:b8:ba:a7:c8:ad:67:49:50:ad:53:2b:
         3c:d3:b1:19:68:f5:3b:3a:59:4d:e7:1a:ea:0c:29:dd:8c:53:
         f5:ba:8a:fc:53:7c:91:fb:77:ce:1b:bf:36:55:c2:54:54:d4:
         d4:f6:cf:5d:8f:5e:d5:6c:53:94:53:e2:43:e0:aa:bf:8b:ff:
         6d:1f:63:93:ac:3d:10:51:33:ad:c5:27:f5:a9:32:c1:b1:9f:
         2f:4e:cd:9c
-----BEGIN CERTIFICATE-----
MIID3DCCAsSgAwIBAgIBCzANBgkqhkiG9w0BAQsFADB0MQswCQYDVQQGEwJTRzEL
MAkGA1UECAwCU0cxEjAQBgNVBAcMCVNpbmdhcG9yZTEPMA0GA1UECgwGU2VjTGFi
MQwwCgYDVQQLDANXZWIxJTAjBgkqhkiG9w0BCQEWFmFkbWluQGR1bW15Y2VydGxh
Yi5jb20wHhcNMTUwMzE0MTEzMDE1WhcNMTYwMzEzMTEzMDE1WjBzMQswCQYDVQQG
EwJTRzELMAkGA1UECAwCU0cxDzANBgNVBAoMBlNlY0xhYjESMBAGA1UECwwJYXBw
MTUuY29tMRIwEAYDVQQDDAlhcHAxNS5jb20xHjAcBgkqhkiG9w0BCQEWD2FkbWlu
QGFwcDE1LmNvbTCCASEwDQYJKoZIhvcNAQEBBQADggEOADCCAQkCggEAWLitlLC8
7BDpbuupKGOfZCxGhN5cnnbRalpbfDC8NSB9nDcCuEgroIb2gJUlb2gM++IyYaeu
dAN6+cK8ZIM1mu3gzpcMSUfinQqyvSUbteoF0VDJOb9e9cDW77oTykRTcSsj88TP
7sdkXbuFl/bHoKNSuxpTAo6aTzhNwrC7RpbQiYwsee2csCXFPNWrJg8XmdATHWt6
WBuehAyW63Mi/8W0jx6zJz7OBn1Zhf6UB1Zm0R6l4E/5H2drT7RHqHm5ubUVYYOr
+guPwNSsRqOoURH/jM5APfs1u48iXU0moW0k/taO0s3rqNei8E9fVeWLis42CJvk
6xNajXSkxIYs8QIDAQABo3sweTAJBgNVHRMEAjAAMCwGCWCGSAGG+EIBDQQfFh1P
cGVuU1NMIEdlbmVyYXRlZCBDZXJ0aWZpY2F0ZTAdBgNVHQ4EFgQUDXXlXxAagLks
cVrAt9b5nbyiFVUwHwYDVR0jBBgwFoAUDLeRx+cOexdMDHvEljjCOI5qUygwDQYJ
KoZIhvcNAQELBQADggEBAIYXYmbAFfuZhIEpVOKvb1HEFZdhyVZIUQh6MYgCSff4
3A8uMUSAOQzyLF3GiH6SgVWoxy/ilNN1O4sqEpTmg9BaJAVEJNRfVRUOE7CQTn7i
KY7R51XcLuuno/Uz1U00tN6sm40U1Rr7GHyPC0XGNBvQVvQDNfu9J1SgRaHDw9mq
/hbjRqTeXf513lboYQuwotSDW9eF0cjqyYxHqadoRB88x4aaNliPzTi4uqfIrWdJ
UK1TKzzTsRlo9Ts6WU3nGuoMKd2MU/W6ivxTfJH7d84bvzZVwlRU1NT2z12PXtVs
U5RT4kPgqr+L/20fY5OsPRBRM63FJ/WpMsGxny9OzZw=
-----END CERTIFICATE-----
