Certificate:
    Data:
        Version: 3 (0x2)
        Serial Number: 12 (0xc)
    Signature Algorithm: sha256WithRSAEncryption
        Issuer: C=SG, ST=SG, L=Singapore, O=SecLab, OU=Web/emailAddress=admin@dummycertlab.com
        Validity
            Not Before: Mar 14 11:32:08 2015 GMT
            Not After : Mar 13 11:32:08 2016 GMT
        Subject: C=SG, ST=SG, O=SecLab, OU=Web, CN=app16.com/emailAddress=admin@app16.com
        Subject Public Key Info:
            Public Key Algorithm: rsaEncryption
                Public-Key: (2047 bit)
                Modulus:
                    66:b6:d1:68:1e:80:49:ce:25:c2:93:0e:be:38:62:
                    68:3d:14:c0:84:8a:b6:18:c1:a6:cd:35:3e:1d:bf:
                    c1:92:4a:d8:70:59:f4:a6:f9:0c:68:cc:80:1b:10:
                    d0:1e:e7:e7:c3:52:66:49:b0:7a:1d:a5:61:7c:1f:
                    94:ed:43:8d:9d:7b:9c:4c:98:33:e8:01:20:a8:2b:
                    9b:a1:90:6e:12:26:2a:a1:b2:98:4a:92:9e:a4:35:
                    0a:6f:30:76:52:e2:d9:3a:2a:bc:29:f7:d3:de:0f:
                    2d:67:ef:4b:2d:22:c9:54:e8:9a:a0:f2:e3:5a:f3:
                    b0:63:9e:be:57:fe:cf:4e:2d:1b:5f:8d:56:19:df:
                    3b:4e:08:24:f2:ce:df:a9:60:1c:2a:41:29:29:e0:
                    9d:5d:82:e5:c8:14:88:c9:10:f3:bd:d9:de:05:b5:
                    bf:40:87:39:ae:70:90:d5:7a:27:8f:33:48:60:df:
                    45:64:f5:eb:cb:a1:88:51:cb:7a:87:0b:01:d9:15:
                    09:2f:71:8a:f5:cd:64:55:cf:da:0c:2c:0f:28:dd:
                    63:f1:af:18:44:23:a3:58:2e:5b:a1:32:d0:2d:6f:
                    75:f4:0c:41:bd:bc:4a:45:9c:44:f6:78:e2:af:f7:
                    81:ce:75:f0:84:0d:8a:3c:06:66:c8:fb:76:35:ee:
                    65
                Exponent: 65537 (0x10001)
        X509v3 extensions:
            X509v3 Basic Constraints: 
                CA:FALSE
            Netscape Comment: 
                OpenSSL Generated Certificate
            X509v3 Subject Key Identifier: 
                12:1E:C2:A4:A0:EA:E1:7C:47:D4:5C:0D:BE:EC:34:BD:9E:3C:31:00
            X509v3 Authority Key Identifier: 
                keyid:0C:B7:91:C7:E7:0E:7B:17:4C:0C:7B:C4:96:38:C2:38:8E:6A:53:28

    Signature Algorithm: sha256WithRSAEncryption
         a7:25:f9:0b:b5:43:b1:64:57:70:3a:a8:21:b4:51:4a:2c:6e:
         e3:22:52:df:94:b1:55:a2:99:ab:98:9d:6b:34:cc:7c:06:58:
         0f:11:ea:ca:aa:d7:b5:41:71:db:bb:31:f2:bf:34:56:8f:e5:
         f3:26:ab:3a:d6:d9:5d:7f:e3:b6:d7:7d:e6:4d:1d:2f:a4:9b:
         a9:2c:ed:62:be:d4:fe:96:7a:5e:ed:c2:cf:54:0a:82:75:9f:
         fb:32:5e:0c:cb:24:5c:11:e4:59:f1:af:5c:e7:83:71:6d:03:
         fd:91:f5:87:02:81:f9:19:25:f2:2c:91:6f:4a:2c:f4:9a:1c:
         2c:50:40:73:b3:57:22:06:56:d2:4a:3f:28:58:de:65:b8:4b:
         54:23:a0:bd:90:49:52:c4:80:46:31:49:ce:71:39:3f:28:7e:
         25:5e:df:cb:b0:af:9f:a1:81:ba:c3:ef:c2:2f:b4:59:29:0c:
         03:ea:8e:74:ff:54:21:9b:ef:55:4e:98:cd:a0:10:2a:61:af:
         a1:cc:79:6b:b9:c8:16:e9:e7:34:d2:7a:2a:7d:2f:2b:65:a3:
         84:19:23:40:97:b1:78:72:65:45:03:a6:44:34:05:4d:df:0d:
         03:63:dc:65:99:ce:f1:9e:a6:40:5e:b7:18:bc:6f:e0:e0:12:
         61:3d:ef:cc
-----BEGIN CERTIFICATE-----
MIID1jCCAr6gAwIBAgIBDDANBgkqhkiG9w0BAQsFADB0MQswCQYDVQQGEwJTRzEL
MAkGA1UECAwCU0cxEjAQBgNVBAcMCVNpbmdhcG9yZTEPMA0GA1UECgwGU2VjTGFi
MQwwCgYDVQQLDANXZWIxJTAjBgkqhkiG9w0BCQEWFmFkbWluQGR1bW15Y2VydGxh
Yi5jb20wHhcNMTUwMzE0MTEzMjA4WhcNMTYwMzEzMTEzMjA4WjBtMQswCQYDVQQG
EwJTRzELMAkGA1UECAwCU0cxDzANBgNVBAoMBlNlY0xhYjEMMAoGA1UECwwDV2Vi
MRIwEAYDVQQDDAlhcHAxNi5jb20xHjAcBgkqhkiG9w0BCQEWD2FkbWluQGFwcDE2
LmNvbTCCASEwDQYJKoZIhvcNAQEBBQADggEOADCCAQkCggEAZrbRaB6ASc4lwpMO
vjhiaD0UwISKthjBps01Ph2/wZJK2HBZ9Kb5DGjMgBsQ0B7n58NSZkmweh2lYXwf
lO1DjZ17nEyYM+gBIKgrm6GQbhImKqGymEqSnqQ1Cm8wdlLi2ToqvCn3094PLWfv
Sy0iyVTomqDy41rzsGOevlf+z04tG1+NVhnfO04IJPLO36lgHCpBKSngnV2C5cgU
iMkQ873Z3gW1v0CHOa5wkNV6J48zSGDfRWT168uhiFHLeocLAdkVCS9xivXNZFXP
2gwsDyjdY/GvGEQjo1guW6Ey0C1vdfQMQb28SkWcRPZ44q/3gc518IQNijwGZsj7
djXuZQIDAQABo3sweTAJBgNVHRMEAjAAMCwGCWCGSAGG+EIBDQQfFh1PcGVuU1NM
IEdlbmVyYXRlZCBDZXJ0aWZpY2F0ZTAdBgNVHQ4EFgQUEh7CpKDq4XxH1FwNvuw0
vZ48MQAwHwYDVR0jBBgwFoAUDLeRx+cOexdMDHvEljjCOI5qUygwDQYJKoZIhvcN
AQELBQADggEBAKcl+Qu1Q7FkV3A6qCG0UUosbuMiUt+UsVWimauYnWs0zHwGWA8R
6sqq17VBcdu7MfK/NFaP5fMmqzrW2V1/47bXfeZNHS+km6ks7WK+1P6Wel7tws9U
CoJ1n/syXgzLJFwR5Fnxr1zng3FtA/2R9YcCgfkZJfIskW9KLPSaHCxQQHOzVyIG
VtJKPyhY3mW4S1QjoL2QSVLEgEYxSc5xOT8ofiVe38uwr5+hgbrD78IvtFkpDAPq
jnT/VCGb71VOmM2gECphr6HMeWu5yBbp5zTSeip9Lytlo4QZI0CXsXhyZUUDpkQ0
BU3fDQNj3GWZzvGepkBetxi8b+DgEmE978w=
-----END CERTIFICATE-----
