Certificate:
    Data:
        Version: 3 (0x2)
        Serial Number: 18 (0x12)
    Signature Algorithm: sha256WithRSAEncryption
        Issuer: C=SG, ST=SG, L=Singapore, O=SecLab, OU=Web/emailAddress=admin@dummycertlab.com
        Validity
            Not Before: Mar 14 11:39:15 2015 GMT
            Not After : Mar 13 11:39:15 2016 GMT
        Subject: C=SG, ST=SG, O=SecLab, OU=Web, CN=app17.com/emailAddress=admin@app17.com
        Subject Public Key Info:
            Public Key Algorithm: rsaEncryption
                Public-Key: (2047 bit)
                Modulus:
                    72:03:b3:ee:23:4e:e4:1c:dd:2d:18:b9:31:0e:9d:
                    d4:d4:02:dc:6d:b1:b4:3f:d9:44:14:cc:b2:ef:4b:
                    b9:ae:cc:5a:60:22:7b:40:13:64:9b:9a:44:4a:63:
                    3d:25:28:34:5e:aa:8b:20:e2:cd:e9:ad:dc:91:71:
                    f6:10:11:b3:04:c0:99:4b:c2:09:92:b5:a6:ef:72:
                    9b:d7:db:80:52:fa:68:d0:3e:59:78:71:fc:30:25:
                    74:49:81:d6:33:3a:f1:df:a3:85:0a:1c:f3:d2:30:
                    98:e7:0d:51:46:0c:3d:c7:83:cb:30:63:ac:db:2a:
                    62:16:94:54:59:54:b8:2f:cd:a0:e9:a9:f9:a1:9d:
                    bf:2d:dd:28:9d:c9:f5:6e:0c:52:65:76:f1:ff:d1:
                    7b:ed:1b:51:07:64:c1:47:e3:49:46:19:99:ce:ee:
                    14:2d:18:a6:fa:5c:0b:2d:1f:46:62:f5:16:6d:05:
                    fd:65:b8:90:46:9c:c6:47:f9:f7:4b:b7:bc:2d:91:
                    00:47:82:f3:ca:b4:24:2f:d1:a6:5b:78:dc:c1:47:
                    31:4e:7b:e9:db:93:98:69:65:96:c0:c4:4e:cc:9a:
                    6c:54:43:28:62:31:0f:79:4f:fe:c8:47:a3:42:1e:
                    86:12:a7:01:80:d9:9e:de:cf:c9:18:ca:02:b8:38:
                    91
                Exponent: 65537 (0x10001)
        X509v3 extensions:
            X509v3 Basic Constraints: 
                CA:FALSE
            Netscape Comment: 
                OpenSSL Generated Certificate
            X509v3 Subject Key Identifier: 
                22:29:CF:F9:3B:1F:E6:A3:D1:7F:0A:47:6D:BC:19:B1:05:8D:B0:D6
            X509v3 Authority Key Identifier: 
                keyid:0C:B7:91:C7:E7:0E:7B:17:4C:0C:7B:C4:96:38:C2:38:8E:6A:53:28

    Signature Algorithm: sha256WithRSAEncryption
         8f:cb:5e:58:b5:39:a1:a9:bf:0a:de:34:df:46:30:b7:fc:77:
         dd:73:37:ed:ac:12:ef:53:1b:b2:3d:9a:91:df:50:f1:7e:32:
         0d:bf:1f:a7:08:49:a8:1e:de:13:4f:b6:dc:23:f9:fe:ac:e3:
         70:fd:72:33:82:04:d9:fc:e9:89:a5:ca:d2:66:75:8b:ac:14:
         ec:59:9a:0d:1d:d8:61:1b:62:83:4b:bb:41:0f:0e:9a:ae:06:
         e0:20:d1:60:18:63:dd:e7:a4:bb:d5:79:af:a6:04:a4:9f:b7:
         e3:09:73:3b:44:0a:96:06:7a:8c:31:18:cb:b1:41:cd:a5:99:
         09:e9:59:40:c2:23:e7:17:47:15:0a:f2:47:dc:ad:cb:e8:15:
         1f:08:aa:b6:1a:31:7b:ae:21:26:45:2f:c3:bf:73:49:1a:a7:
         cd:6a:0a:77:a5:b1:eb:c2:50:dd:a4:db:37:7c:eb:e7:72:e5:
         25:a7:f2:13:85:89:fc:48:51:74:cb:66:6e:78:cf:58:fd:22:
         17:dc:c8:ee:11:d6:24:3c:ae:cb:da:40:9a:ca:dd:e4:f7:d2:
         03:64:ce:f9:0f:e4:43:dd:a0:47:42:09:ce:5d:a1:4f:5c:77:
         58:eb:cf:10:0f:aa:de:4f:ef:c9:b0:3a:38:3d:6b:b8:d5:83:
         e6:81:6e:75
-----BEGIN CERTIFICATE-----
MIID1jCCAr6gAwIBAgIBEjANBgkqhkiG9w0BAQsFADB0MQswCQYDVQQGEwJTRzEL
MAkGA1UECAwCU0cxEjAQBgNVBAcMCVNpbmdhcG9yZTEPMA0GA1UECgwGU2VjTGFi
MQwwCgYDVQQLDANXZWIxJTAjBgkqhkiG9w0BCQEWFmFkbWluQGR1bW15Y2VydGxh
Yi5jb20wHhcNMTUwMzE0MTEzOTE1WhcNMTYwMzEzMTEzOTE1WjBtMQswCQYDVQQG
EwJTRzELMAkGA1UECAwCU0cxDzANBgNVBAoMBlNlY0xhYjEMMAoGA1UECwwDV2Vi
MRIwEAYDVQQDDAlhcHAxNy5jb20xHjAcBgkqhkiG9w0BCQEWD2FkbWluQGFwcDE3
LmNvbTCCASEwDQYJKoZIhvcNAQEBBQADggEOADCCAQkCggEAcgOz7iNO5BzdLRi5
MQ6d1NQC3G2xtD/ZRBTMsu9Lua7MWmAie0ATZJuaREpjPSUoNF6qiyDizemt3JFx
9hARswTAmUvCCZK1pu9ym9fbgFL6aNA+WXhx/DAldEmB1jM68d+jhQoc89IwmOcN
UUYMPceDyzBjrNsqYhaUVFlUuC/NoOmp+aGdvy3dKJ3J9W4MUmV28f/Re+0bUQdk
wUfjSUYZmc7uFC0YpvpcCy0fRmL1Fm0F/WW4kEacxkf590u3vC2RAEeC88q0JC/R
plt43MFHMU576duTmGlllsDETsyabFRDKGIxD3lP/shHo0IehhKnAYDZnt7PyRjK
Arg4kQIDAQABo3sweTAJBgNVHRMEAjAAMCwGCWCGSAGG+EIBDQQfFh1PcGVuU1NM
IEdlbmVyYXRlZCBDZXJ0aWZpY2F0ZTAdBgNVHQ4EFgQUIinP+Tsf5qPRfwpHbbwZ
sQWNsNYwHwYDVR0jBBgwFoAUDLeRx+cOexdMDHvEljjCOI5qUygwDQYJKoZIhvcN
AQELBQADggEBAI/LXli1OaGpvwreNN9GMLf8d91zN+2sEu9TG7I9mpHfUPF+Mg2/
H6cISage3hNPttwj+f6s43D9cjOCBNn86YmlytJmdYusFOxZmg0d2GEbYoNLu0EP
DpquBuAg0WAYY93npLvVea+mBKSft+MJcztECpYGeowxGMuxQc2lmQnpWUDCI+cX
RxUK8kfcrcvoFR8IqrYaMXuuISZFL8O/c0kap81qCnelsevCUN2k2zd86+dy5SWn
8hOFifxIUXTLZm54z1j9IhfcyO4R1iQ8rsvaQJrK3eT30gNkzvkP5EPdoEdCCc5d
oU9cd1jrzxAPqt5P78mwOjg9a7jVg+aBbnU=
-----END CERTIFICATE-----
