Certificate:
    Data:
        Version: 3 (0x2)
        Serial Number: 13 (0xd)
    Signature Algorithm: sha256WithRSAEncryption
        Issuer: C=SG, ST=SG, L=Singapore, O=SecLab, OU=Web/emailAddress=admin@dummycertlab.com
        Validity
            Not Before: Mar 14 11:32:28 2015 GMT
            Not After : Mar 13 11:32:28 2016 GMT
        Subject: C=SG, ST=SG, O=SecLab, OU=Web, CN=app18.com/emailAddress=admin@app18.com
        Subject Public Key Info:
            Public Key Algorithm: rsaEncryption
                Public-Key: (2047 bit)
                Modulus:
                    5c:1d:c1:af:bf:93:70:93:cf:30:dc:4d:cb:54:9f:
                    91:f8:b0:4d:17:1f:1a:6f:da:8d:c5:87:05:29:f7:
                    40:30:48:d3:94:43:71:ad:7e:51:dd:dc:53:13:34:
                    a4:6e:ce:96:d1:e7:d4:79:ee:bd:c7:92:51:0f:09:
                    7e:4c:1d:7a:4e:83:49:83:1d:a6:74:a4:aa:61:61:
                    fe:4b:16:94:d0:5f:51:4f:03:9c:09:a7:87:4f:d0:
                    e8:d6:fa:3e:a4:b6:09:86:25:a4:bf:5d:86:0a:3f:
                    46:da:40:e3:e3:46:45:d3:5d:a7:ab:39:5c:0f:b0:
                    1e:9e:b4:2c:6e:73:6c:23:d0:ac:ec:e4:40:d2:d9:
                    e7:14:33:54:7f:1b:0e:e9:53:e1:e2:83:ec:a2:e6:
                    ed:5b:d2:1c:13:b1:f6:fa:f1:ef:ec:37:64:bb:9f:
                    bf:ac:b9:1e:1b:b2:b3:00:8b:b2:e2:86:46:80:14:
                    64:37:9a:13:f8:18:a2:1b:82:64:b0:dc:41:45:e3:
                    5e:df:57:3b:8d:4a:55:2f:67:71:53:f7:8d:9a:17:
                    de:00:36:a9:61:0a:1c:91:47:09:b4:cc:aa:d8:d2:
                    28:31:49:d3:07:cf:a9:61:03:46:80:41:f4:b9:50:
                    8a:f4:c0:27:9f:f4:da:ad:d9:db:97:73:6f:fa:61:
                    b5
                Exponent: 65537 (0x10001)
        X509v3 extensions:
            X509v3 Basic Constraints: 
                CA:FALSE
            Netscape Comment: 
                OpenSSL Generated Certificate
            X509v3 Subject Key Identifier: 
                B1:4C:A3:89:88:D0:E8:9B:74:59:8E:0F:4C:B5:45:2C:D3:50:F8:D7
            X509v3 Authority Key Identifier: 
                keyid:0C:B7:91:C7:E7:0E:7B:17:4C:0C:7B:C4:96:38:C2:38:8E:6A:53:28

    Signature Algorithm: sha256WithRSAEncryption
         29:53:2f:7e:4a:2f:c0:64:57:2b:a4:1b:cb:bc:29:80:27:4e:
         96:18:ce:86:5e:20:73:22:0c:46:2c:9a:35:c4:47:a9:7f:47:
         29:45:34:a4:32:b2:08:80:5a:a8:a4:43:e3:1c:60:61:7a:9e:
         bf:14:86:3e:6f:8b:4e:07:0c:7c:31:ce:ea:2e:48:fd:1a:ee:
         3d:79:88:54:bb:17:7c:e2:96:58:0a:36:56:62:f1:e3:a7:b6:
         3b:0d:f2:8f:97:61:c0:6e:a8:98:09:42:39:1f:d2:fe:50:6b:
         6d:7e:fe:0e:56:d2:5f:50:51:1f:d0:cf:33:4e:1e:45:09:a5:
         13:0f:1d:6a:87:65:46:19:60:bb:36:79:af:f1:83:22:a8:b9:
         ab:6a:06:3b:ea:8f:54:4b:f5:7c:17:03:76:d2:2c:9f:b5:e0:
         5a:7b:d3:ea:64:05:8e:41:9f:db:be:c7:91:c0:31:fa:b7:b6:
         27:4a:27:bb:a6:ab:c4:9d:53:e7:72:30:cd:f3:57:c4:65:be:
         38:cb:70:4a:8b:31:93:c0:7d:9f:f1:86:c2:36:2b:0b:b2:14:
         5f:82:ef:5d:86:13:aa:28:77:ec:32:00:41:ae:f7:89:fb:c1:
         ab:7c:86:09:a0:04:2e:4b:2c:a3:0f:c2:7c:aa:72:fc:3c:2b:
         07:65:ab:a6
-----BEGIN CERTIFICATE-----
MIID1jCCAr6gAwIBAgIBDTANBgkqhkiG9w0BAQsFADB0MQswCQYDVQQGEwJTRzEL
MAkGA1UECAwCU0cxEjAQBgNVBAcMCVNpbmdhcG9yZTEPMA0GA1UECgwGU2VjTGFi
MQwwCgYDVQQLDANXZWIxJTAjBgkqhkiG9w0BCQEWFmFkbWluQGR1bW15Y2VydGxh
Yi5jb20wHhcNMTUwMzE0MTEzMjI4WhcNMTYwMzEzMTEzMjI4WjBtMQswCQYDVQQG
EwJTRzELMAkGA1UECAwCU0cxDzANBgNVBAoMBlNlY0xhYjEMMAoGA1UECwwDV2Vi
MRIwEAYDVQQDDAlhcHAxOC5jb20xHjAcBgkqhkiG9w0BCQEWD2FkbWluQGFwcDE4
LmNvbTCCASEwDQYJKoZIhvcNAQEBBQADggEOADCCAQkCggEAXB3Br7+TcJPPMNxN
y1SfkfiwTRcfGm/ajcWHBSn3QDBI05RDca1+Ud3cUxM0pG7OltHn1HnuvceSUQ8J
fkwdek6DSYMdpnSkqmFh/ksWlNBfUU8DnAmnh0/Q6Nb6PqS2CYYlpL9dhgo/RtpA
4+NGRdNdp6s5XA+wHp60LG5zbCPQrOzkQNLZ5xQzVH8bDulT4eKD7KLm7VvSHBOx
9vrx7+w3ZLufv6y5HhuyswCLsuKGRoAUZDeaE/gYohuCZLDcQUXjXt9XO41KVS9n
cVP3jZoX3gA2qWEKHJFHCbTMqtjSKDFJ0wfPqWEDRoBB9LlQivTAJ5/02q3Z25dz
b/phtQIDAQABo3sweTAJBgNVHRMEAjAAMCwGCWCGSAGG+EIBDQQfFh1PcGVuU1NM
IEdlbmVyYXRlZCBDZXJ0aWZpY2F0ZTAdBgNVHQ4EFgQUsUyjiYjQ6Jt0WY4PTLVF
LNNQ+NcwHwYDVR0jBBgwFoAUDLeRx+cOexdMDHvEljjCOI5qUygwDQYJKoZIhvcN
AQELBQADggEBAClTL35KL8BkVyukG8u8KYAnTpYYzoZeIHMiDEYsmjXER6l/RylF
NKQysgiAWqikQ+McYGF6nr8Uhj5vi04HDHwxzuouSP0a7j15iFS7F3zillgKNlZi
8eOntjsN8o+XYcBuqJgJQjkf0v5Qa21+/g5W0l9QUR/QzzNOHkUJpRMPHWqHZUYZ
YLs2ea/xgyKouatqBjvqj1RL9XwXA3bSLJ+14Fp70+pkBY5Bn9u+x5HAMfq3tidK
J7umq8SdU+dyMM3zV8RlvjjLcEqLMZPAfZ/xhsI2KwuyFF+C712GE6ood+wyAEGu
94n7wat8hgmgBC5LLKMPwnyqcvw8Kwdlq6Y=
-----END CERTIFICATE-----
