Certificate:
    Data:
        Version: 3 (0x2)
        Serial Number: 14 (0xe)
    Signature Algorithm: sha256WithRSAEncryption
        Issuer: C=SG, ST=SG, L=Singapore, O=SecLab, OU=Web/emailAddress=admin@dummycertlab.com
        Validity
            Not Before: Mar 14 11:32:32 2015 GMT
            Not After : Mar 13 11:32:32 2016 GMT
        Subject: C=SG, ST=SG, O=SecLab, OU=Web, CN=app19.com/emailAddress=admin@app19.com
        Subject Public Key Info:
            Public Key Algorithm: rsaEncryption
                Public-Key: (2047 bit)
                Modulus:
                    72:2c:9d:79:15:c5:63:03:9a:ca:4e:3f:a7:9a:41:
                    49:0b:6b:1a:14:27:73:92:3f:24:ad:a7:a7:81:4b:
                    03:7a:01:08:e9:88:57:a0:db:9f:da:de:77:1b:8e:
                    a6:d9:55:48:1e:dc:fa:1e:30:cd:0b:8b:28:9d:7b:
                    ee:05:7c:3b:1f:24:cb:17:59:a1:37:fb:40:cf:a1:
                    29:6d:da:50:d2:a7:8b:35:3d:94:c5:95:2c:0a:ee:
                    95:46:09:66:cb:ad:b9:42:b7:32:ee:12:1e:a4:b1:
                    f7:00:cc:ec:8c:dc:d1:83:ec:50:82:8a:42:f1:8c:
                    94:41:0d:10:83:8a:51:1b:2c:1a:b9:f7:af:cb:4b:
                    db:b3:62:ea:60:36:8c:e9:aa:e5:a5:94:f0:76:59:
                    63:b8:89:55:b9:4e:23:0b:8a:d1:92:fe:ef:ad:39:
                    c4:c5:13:ca:61:50:57:70:f5:06:dc:c2:12:0d:53:
                    b3:59:9d:17:cb:04:30:be:52:f0:20:4f:da:cd:cd:
                    df:e4:8c:36:c6:3c:b6:16:92:53:87:6c:09:4d:c7:
                    c0:3f:98:8f:cc:45:2f:3e:13:17:c5:12:d8:23:5f:
                    17:ec:e3:a1:5c:c3:db:ce:c1:ff:67:7b:d2:09:db:
                    91:0b:b5:7e:77:6c:cf:20:69:08:99:db:36:34:24:
                    b7
                Exponent: 65537 (0x10001)
        X509v3 extensions:
            X509v3 Basic Constraints: 
                CA:FALSE
            Netscape Comment: 
                OpenSSL Generated Certificate
            X509v3 Subject Key Identifier: 
                DC:F4:CF:C8:1D:09:CB:C6:AA:65:C7:56:E9:46:8C:C4:67:AA:A2:57
            X509v3 Authority Key Identifier: 
                keyid:0C:B7:91:C7:E7:0E:7B:17:4C:0C:7B:C4:96:38:C2:38:8E:6A:53:28

    Signature Algorithm: sha256WithRSAEncryption
         ab:3b:dc:24:e1:6c:aa:b9:bd:43:0c:cf:2d:97:ab:b2:c8:da:
         ea:b7:6d:ce:15:c5:db:c6:50:51:bf:d4:9d:6f:0e:d9:b8:5f:
         a6:12:2b:e8:62:c6:19:ac:f6:82:a8:a3:70:b4:c5:7d:08:61:
         08:87:34:ee:4c:d2:d0:17:90:43:35:30:d3:a2:1c:66:9f:c2:
         4b:c4:3c:cd:c1:46:17:d5:03:a3:d6:df:64:c2:3b:e0:e4:c3:
         cc:21:16:b0:6b:fb:5e:df:8d:13:80:ca:03:f0:9f:71:a1:ef:
         eb:26:5e:f1:b8:48:3a:e3:95:c9:49:f5:e8:20:a2:b8:c0:eb:
         e5:b9:43:70:67:71:ca:e6:ed:49:3f:3d:18:96:02:0d:bd:ce:
         0c:65:e4:68:4e:86:c4:35:77:8b:7f:f4:c6:e8:35:8d:54:e8:
         7a:4e:b7:7a:8c:0f:88:73:df:c4:4d:dd:cf:91:3b:2f:be:5c:
         3d:7e:39:de:34:d0:83:e5:d0:61:93:5e:32:a5:8b:f6:62:39:
         86:3c:c8:29:8a:73:f6:31:09:46:b9:8c:89:00:3e:a4:ce:90:
         b3:4a:c4:e3:71:31:69:52:8b:e2:be:89:3c:2b:6b:49:d0:60:
         f8:cf:12:7f:a9:7a:16:a2:df:8f:31:43:54:4a:37:1a:13:3f:
         66:b9:e9:64
-----BEGIN CERTIFICATE-----
MIID1jCCAr6gAwIBAgIBDjANBgkqhkiG9w0BAQsFADB0MQswCQYDVQQGEwJTRzEL
MAkGA1UECAwCU0cxEjAQBgNVBAcMCVNpbmdhcG9yZTEPMA0GA1UECgwGU2VjTGFi
MQwwCgYDVQQLDANXZWIxJTAjBgkqhkiG9w0BCQEWFmFkbWluQGR1bW15Y2VydGxh
Yi5jb20wHhcNMTUwMzE0MTEzMjMyWhcNMTYwMzEzMTEzMjMyWjBtMQswCQYDVQQG
EwJTRzELMAkGA1UECAwCU0cxDzANBgNVBAoMBlNlY0xhYjEMMAoGA1UECwwDV2Vi
MRIwEAYDVQQDDAlhcHAxOS5jb20xHjAcBgkqhkiG9w0BCQEWD2FkbWluQGFwcDE5
LmNvbTCCASEwDQYJKoZIhvcNAQEBBQADggEOADCCAQkCggEAciydeRXFYwOayk4/
p5pBSQtrGhQnc5I/JK2np4FLA3oBCOmIV6Dbn9redxuOptlVSB7c+h4wzQuLKJ17
7gV8Ox8kyxdZoTf7QM+hKW3aUNKnizU9lMWVLArulUYJZsutuUK3Mu4SHqSx9wDM
7Izc0YPsUIKKQvGMlEENEIOKURssGrn3r8tL27Ni6mA2jOmq5aWU8HZZY7iJVblO
IwuK0ZL+7605xMUTymFQV3D1BtzCEg1Ts1mdF8sEML5S8CBP2s3N3+SMNsY8thaS
U4dsCU3HwD+Yj8xFLz4TF8US2CNfF+zjoVzD287B/2d70gnbkQu1fndszyBpCJnb
NjQktwIDAQABo3sweTAJBgNVHRMEAjAAMCwGCWCGSAGG+EIBDQQfFh1PcGVuU1NM
IEdlbmVyYXRlZCBDZXJ0aWZpY2F0ZTAdBgNVHQ4EFgQU3PTPyB0Jy8aqZcdW6UaM
xGeqolcwHwYDVR0jBBgwFoAUDLeRx+cOexdMDHvEljjCOI5qUygwDQYJKoZIhvcN
AQELBQADggEBAKs73CThbKq5vUMMzy2Xq7LI2uq3bc4VxdvGUFG/1J1vDtm4X6YS
K+hixhms9oKoo3C0xX0IYQiHNO5M0tAXkEM1MNOiHGafwkvEPM3BRhfVA6PW32TC
O+Dkw8whFrBr+17fjROAygPwn3Gh7+smXvG4SDrjlclJ9eggorjA6+W5Q3Bnccrm
7Uk/PRiWAg29zgxl5GhOhsQ1d4t/9MboNY1U6HpOt3qMD4hz38RN3c+ROy++XD1+
Od400IPl0GGTXjKli/ZiOYY8yCmKc/YxCUa5jIkAPqTOkLNKxONxMWlSi+K+iTwr
a0nQYPjPEn+pehai348xQ1RKNxoTP2a56WQ=
-----END CERTIFICATE-----
