Certificate:
    Data:
        Version: 3 (0x2)
        Serial Number: 15 (0xf)
    Signature Algorithm: sha256WithRSAEncryption
        Issuer: C=SG, ST=SG, L=Singapore, O=SecLab, OU=Web/emailAddress=admin@dummycertlab.com
        Validity
            Not Before: Mar 14 11:32:35 2015 GMT
            Not After : Mar 13 11:32:35 2016 GMT
        Subject: C=SG, ST=SG, O=SecLab, OU=Web, CN=app20.com/emailAddress=admin@app20.com
        Subject Public Key Info:
            Public Key Algorithm: rsaEncryption
                Public-Key: (2047 bit)
                Modulus:
                    5d:67:b9:ec:f3:99:e4:66:88:3a:85:06:68:8e:c2:
                    54:e9:cf:42:11:d9:9f:93:44:c2:60:6d:ad:29:e0:
                    cb:61:f8:1f:6b:a1:ef:c6:b8:dd:5f:58:3b:97:2d:
                    49:f5:3a:06:64:12:cf:45:6c:62:e4:25:72:29:c7:
                    02:0d:98:53:4e:11:7f:6e:94:70:28:5c:68:d0:f0:
                    42:7f:9b:f3:73:9e:1b:01:e7:f8:0d:f0:09:b7:c0:
                    de:91:ab:2d:f9:2e:3a:37:ac:4d:d7:fc:3a:bb:13:
                    ee:48:3b:d6:8f:7f:ef:5b:eb:d2:9d:a5:66:c5:75:
                    b5:68:53:b2:9b:a8:76:79:a2:f2:e1:5e:80:2c:ec:
                    ce:49:ef:e8:c9:90:78:9d:1b:15:32:73:13:4d:b1:
                    5d:7f:cf:e8:52:7e:f1:a9:f2:d2:f8:bb:fd:dc:01:
                    ef:34:d9:3f:1a:75:9b:cb:13:42:87:66:d1:fd:2e:
                    f7:64:3e:a9:00:a5:77:31:7b:4d:6e:09:93:b8:e5:
                    06:a9:6e:6d:a9:70:56:39:97:9f:51:ba:5d:d1:43:
                    91:35:e9:d8:0f:88:7e:4e:2b:ec:eb:4a:75:9d:ff:
                    c7:cd:2e:4e:ec:fe:b6:e5:f8:64:06:d0:91:6e:b1:
                    47:1e:c5:68:64:89:45:d7:d4:19:1a:3f:d0:2d:c6:
                    2d
                Exponent: 65537 (0x10001)
        X509v3 extensions:
            X509v3 Basic Constraints: 
                CA:FALSE
            Netscape Comment: 
                OpenSSL Generated Certificate
            X509v3 Subject Key Identifier: 
                24:13:6E:29:9C:8F:1B:67:9E:9A:F8:A3:1C:77:09:9B:CD:57:45:98
            X509v3 Authority Key Identifier: 
                keyid:0C:B7:91:C7:E7:0E:7B:17:4C:0C:7B:C4:96:38:C2:38:8E:6A:53:28

    Signature Algorithm: sha256WithRSAEncryption
         55:bb:f5:51:83:c2:ca:b9:98:a8:f2:50:01:1b:3e:38:0e:19:
         43:41:83:2c:9c:26:6b:6d:0f:dd:33:60:65:e6:c7:7a:75:1f:
         c9:4a:21:38:f0:9f:1c:85:66:f0:d8:9c:73:f1:0c:35:05:3b:
         a8:80:9f:77:18:48:f0:59:9e:8f:a7:2e:72:86:93:e1:c2:88:
         f9:f4:80:31:ac:4b:6f:a4:28:4d:3d:f6:17:af:18:ca:b0:69:
         35:62:b1:93:2c:c9:f8:38:08:7d:bc:92:b1:11:24:1e:fc:52:
         24:1c:30:28:c2:62:e0:17:b3:ea:96:91:10:ec:12:bc:c1:52:
         4f:20:85:7f:6e:22:9f:60:5c:36:dc:fd:72:81:30:c7:8a:0e:
         90:e3:d2:b4:08:6c:2b:1c:15:61:41:a7:3b:41:77:4a:23:af:
         67:62:35:47:c3:4f:db:57:68:b2:45:05:81:50:04:53:ab:c5:
         da:70:39:39:72:99:9f:25:b9:4c:80:7a:fe:7c:47:b8:a8:23:
         21:84:b0:ff:42:0d:3d:74:19:db:cf:64:ea:fe:62:28:0e:03:
         3a:5c:85:cb:bf:f4:62:3e:36:94:ef:c5:62:a8:81:86:1c:72:
         32:c9:af:4e:1d:a2:3c:b2:5a:f6:71:fb:95:ee:97:79:68:80:
         f2:a9:f8:67
-----BEGIN CERTIFICATE-----
MIID1jCCAr6gAwIBAgIBDzANBgkqhkiG9w0BAQsFADB0MQswCQYDVQQGEwJTRzEL
MAkGA1UECAwCU0cxEjAQBgNVBAcMCVNpbmdhcG9yZTEPMA0GA1UECgwGU2VjTGFi
MQwwCgYDVQQLDANXZWIxJTAjBgkqhkiG9w0BCQEWFmFkbWluQGR1bW15Y2VydGxh
Yi5jb20wHhcNMTUwMzE0MTEzMjM1WhcNMTYwMzEzMTEzMjM1WjBtMQswCQYDVQQG
EwJTRzELMAkGA1UECAwCU0cxDzANBgNVBAoMBlNlY0xhYjEMMAoGA1UECwwDV2Vi
MRIwEAYDVQQDDAlhcHAyMC5jb20xHjAcBgkqhkiG9w0BCQEWD2FkbWluQGFwcDIw
LmNvbTCCASEwDQYJKoZIhvcNAQEBBQADggEOADCCAQkCggEAXWe57POZ5GaIOoUG
aI7CVOnPQhHZn5NEwmBtrSngy2H4H2uh78a43V9YO5ctSfU6BmQSz0VsYuQlcinH
Ag2YU04Rf26UcChcaNDwQn+b83OeGwHn+A3wCbfA3pGrLfkuOjesTdf8OrsT7kg7
1o9/71vr0p2lZsV1tWhTspuodnmi8uFegCzszknv6MmQeJ0bFTJzE02xXX/P6FJ+
8any0vi7/dwB7zTZPxp1m8sTQodm0f0u92Q+qQCldzF7TW4Jk7jlBqlubalwVjmX
n1G6XdFDkTXp2A+Ifk4r7OtKdZ3/x80uTuz+tuX4ZAbQkW6xRx7FaGSJRdfUGRo/
0C3GLQIDAQABo3sweTAJBgNVHRMEAjAAMCwGCWCGSAGG+EIBDQQfFh1PcGVuU1NM
IEdlbmVyYXRlZCBDZXJ0aWZpY2F0ZTAdBgNVHQ4EFgQUJBNuKZyPG2eemvijHHcJ
m81XRZgwHwYDVR0jBBgwFoAUDLeRx+cOexdMDHvEljjCOI5qUygwDQYJKoZIhvcN
AQELBQADggEBAFW79VGDwsq5mKjyUAEbPjgOGUNBgyycJmttD90zYGXmx3p1H8lK
ITjwnxyFZvDYnHPxDDUFO6iAn3cYSPBZno+nLnKGk+HCiPn0gDGsS2+kKE099hev
GMqwaTVisZMsyfg4CH28krERJB78UiQcMCjCYuAXs+qWkRDsErzBUk8ghX9uIp9g
XDbc/XKBMMeKDpDj0rQIbCscFWFBpztBd0ojr2diNUfDT9tXaLJFBYFQBFOrxdpw
OTlymZ8luUyAev58R7ioIyGEsP9CDT10GdvPZOr+YigOAzpchcu/9GI+NpTvxWKo
gYYccjLJr04dojyyWvZx+5Xul3logPKp+Gc=
-----END CERTIFICATE-----
