Certificate:
    Data:
        Version: 3 (0x2)
        Serial Number: 22 (0x16)
    Signature Algorithm: sha256WithRSAEncryption
        Issuer: C=SG, ST=SG, L=Singapore, O=SecLab, OU=Web/emailAddress=admin@dummycertlab.com
        Validity
            Not Before: Mar 16 20:00:55 2015 GMT
            Not After : Mar 15 20:00:55 2016 GMT
        Subject: C=SG, ST=SG, O=SecLab, OU=Web, CN=bm1.com/emailAddress=admin@bm1.com
        Subject Public Key Info:
            Public Key Algorithm: rsaEncryption
                Public-Key: (2048 bit)
                Modulus:
                    00:c3:a5:f0:e6:a1:4f:3e:65:a7:02:d7:a9:dc:97:
                    db:38:09:bc:f5:b8:66:88:1f:a0:b2:9a:99:c9:71:
                    5c:7e:69:ef:bb:7a:0d:12:9c:c0:93:f8:63:98:b3:
                    62:a7:12:1c:49:87:36:4e:4d:d9:5e:06:6c:6c:0a:
                    f0:d2:a1:79:a0:72:1e:6e:ca:a9:b1:87:f0:21:3a:
                    4d:e7:d8:95:e6:ed:59:b3:aa:c8:24:71:bc:18:4a:
                    1b:12:de:23:23:a5:64:ef:94:31:06:e4:e0:0d:3c:
                    26:5b:74:e9:e1:b6:d5:39:1d:e6:0e:f4:53:f4:62:
                    c8:da:7e:19:98:fa:61:9b:92:05:57:5b:b1:ac:8b:
                    ba:cf:da:e0:4a:3b:36:ef:54:2e:51:2b:6f:d9:3e:
                    2b:4e:82:7e:8a:fd:39:67:4e:af:da:67:f1:86:c2:
                    19:11:8b:d8:4b:24:32:1f:15:6f:83:96:f3:d8:69:
                    62:00:b0:49:03:85:90:b0:19:20:59:c8:7d:48:0b:
                    d2:85:d0:fc:65:97:16:62:cf:73:1d:7d:74:37:a6:
                    32:fe:f0:30:ec:c5:ad:e4:77:51:32:7c:9a:e8:cf:
                    e9:39:a7:87:a5:f8:48:d9:b9:a1:c3:5d:1a:b2:c5:
                    8f:f1:a0:0b:98:62:f9:f4:95:5e:42:83:77:77:ec:
                    88:dd
                Exponent: 65537 (0x10001)
        X509v3 extensions:
            X509v3 Basic Constraints: 
                CA:FALSE
            Netscape Comment: 
                OpenSSL Generated Certificate
            X509v3 Subject Key Identifier: 
                95:1F:3B:58:E8:74:F1:87:A6:6B:71:7D:2E:AC:AA:4C:4B:2C:8C:A0
            X509v3 Authority Key Identifier: 
                keyid:0C:B7:91:C7:E7:0E:7B:17:4C:0C:7B:C4:96:38:C2:38:8E:6A:53:28

    Signature Algorithm: sha256WithRSAEncryption
         19:a8:b1:2a:07:40:ae:cb:ec:2d:17:8d:be:1d:28:c1:15:73:
         51:a1:4f:8e:b6:ec:14:dc:d0:bd:30:66:8d:4b:f4:9e:2f:ee:
         e5:b9:8b:33:5f:92:ab:35:d2:f8:9b:fc:61:da:d9:ba:67:68:
         aa:c6:e0:b9:27:aa:fe:5e:c4:b7:5b:06:03:c6:cd:77:22:11:
         b3:2e:54:81:ca:4f:4c:1f:12:2f:40:12:81:b0:6b:6e:08:1f:
         7c:18:29:75:55:84:eb:69:b7:dd:01:dd:bd:76:66:cf:27:a9:
         96:86:9b:47:17:2d:dd:6f:ae:0f:d2:ee:c0:32:7b:74:75:5f:
         1e:af:d0:a2:08:07:45:24:77:1a:35:1d:15:43:50:75:28:e8:
         fd:53:05:0e:17:2c:c6:2f:d4:9a:74:89:26:39:18:41:a2:21:
         1c:30:94:56:3e:b0:6c:d7:98:d6:79:77:67:32:72:37:87:b0:
         36:61:26:f3:ac:bc:46:e1:e1:d4:e1:bd:e2:c9:17:57:8c:74:
         43:65:52:25:c3:f4:08:37:36:f1:a3:73:71:61:85:6b:22:b5:
         3e:cb:41:b1:c3:f7:da:b2:30:ae:9a:2a:1c:25:39:7e:45:24:
         e3:12:dd:13:71:3e:0e:98:2c:7f:f2:a0:d3:47:11:7f:bb:74:
         fd:0a:37:db
-----BEGIN CERTIFICATE-----
MIID0zCCArugAwIBAgIBFjANBgkqhkiG9w0BAQsFADB0MQswCQYDVQQGEwJTRzEL
MAkGA1UECAwCU0cxEjAQBgNVBAcMCVNpbmdhcG9yZTEPMA0GA1UECgwGU2VjTGFi
MQwwCgYDVQQLDANXZWIxJTAjBgkqhkiG9w0BCQEWFmFkbWluQGR1bW15Y2VydGxh
Yi5jb20wHhcNMTUwMzE2MjAwMDU1WhcNMTYwMzE1MjAwMDU1WjBpMQswCQYDVQQG
EwJTRzELMAkGA1UECAwCU0cxDzANBgNVBAoMBlNlY0xhYjEMMAoGA1UECwwDV2Vi
MRAwDgYDVQQDDAdibTEuY29tMRwwGgYJKoZIhvcNAQkBFg1hZG1pbkBibTEuY29t
MIIBIjANBgkqhkiG9w0BAQEFAAOCAQ8AMIIBCgKCAQEAw6Xw5qFPPmWnAtep3Jfb
OAm89bhmiB+gspqZyXFcfmnvu3oNEpzAk/hjmLNipxIcSYc2Tk3ZXgZsbArw0qF5
oHIebsqpsYfwITpN59iV5u1Zs6rIJHG8GEobEt4jI6Vk75QxBuTgDTwmW3Tp4bbV
OR3mDvRT9GLI2n4ZmPphm5IFV1uxrIu6z9rgSjs271QuUStv2T4rToJ+iv05Z06v
2mfxhsIZEYvYSyQyHxVvg5bz2GliALBJA4WQsBkgWch9SAvShdD8ZZcWYs9zHX10
N6Yy/vAw7MWt5HdRMnya6M/pOaeHpfhI2bmhw10assWP8aALmGL59JVeQoN3d+yI
3QIDAQABo3sweTAJBgNVHRMEAjAAMCwGCWCGSAGG+EIBDQQfFh1PcGVuU1NMIEdl
bmVyYXRlZCBDZXJ0aWZpY2F0ZTAdBgNVHQ4EFgQUlR87WOh08Yema3F9LqyqTEss
jKAwHwYDVR0jBBgwFoAUDLeRx+cOexdMDHvEljjCOI5qUygwDQYJKoZIhvcNAQEL
BQADggEBABmosSoHQK7L7C0Xjb4dKMEVc1GhT4627BTc0L0wZo1L9J4v7uW5izNf
kqs10vib/GHa2bpnaKrG4Lknqv5exLdbBgPGzXciEbMuVIHKT0wfEi9AEoGwa24I
H3wYKXVVhOtpt90B3b12Zs8nqZaGm0cXLd1vrg/S7sAye3R1Xx6v0KIIB0Ukdxo1
HRVDUHUo6P1TBQ4XLMYv1Jp0iSY5GEGiIRwwlFY+sGzXmNZ5d2cycjeHsDZhJvOs
vEbh4dThveLJF1eMdENlUiXD9Ag3NvGjc3FhhWsitT7LQbHD99qyMK6aKhwlOX5F
JOMS3RNxPg6YLH/yoNNHEX+7dP0KN9s=
-----END CERTIFICATE-----
