Certificate:
    Data:
        Version: 3 (0x2)
        Serial Number: 23 (0x17)
    Signature Algorithm: sha256WithRSAEncryption
        Issuer: C=SG, ST=SG, L=Singapore, O=SecLab, OU=Web/emailAddress=admin@dummycertlab.com
        Validity
            Not Before: Mar 16 20:01:12 2015 GMT
            Not After : Mar 15 20:01:12 2016 GMT
        Subject: C=SG, ST=SG, O=SecLab, OU=Web, CN=bm2.com/emailAddress=admin@bm2.com
        Subject Public Key Info:
            Public Key Algorithm: rsaEncryption
                Public-Key: (2048 bit)
                Modulus:
                    00:d3:b2:cc:49:76:aa:b6:d3:06:25:71:cf:72:82:
                    c5:11:f9:4c:ed:4b:55:aa:d7:88:00:08:0f:88:97:
                    ca:d4:86:41:75:88:15:21:c0:b6:4a:6c:8e:e4:17:
                    43:93:72:3a:08:27:fb:f0:fd:93:f3:3c:dc:1a:5f:
                    35:bb:b5:7b:58:e3:7e:36:2f:6d:30:2c:3e:5c:8a:
                    75:11:21:5a:0e:7a:9b:e3:85:d1:c5:9c:54:d1:fb:
                    06:7f:02:1d:56:9a:c0:9d:2d:b3:27:0d:f6:c1:ed:
                    c0:e5:7e:b0:1c:f9:7e:a0:eb:a6:3b:41:34:6d:ea:
                    b4:80:f2:18:fb:16:89:15:f9:1f:5b:0b:50:1f:20:
                    31:4f:e4:fa:e5:8e:3b:f1:9f:57:5d:92:ee:50:af:
                    b1:ab:12:d4:37:f0:6f:7d:b5:3f:da:65:24:f9:ca:
                    1d:07:54:f3:1a:50:00:f0:41:cc:de:95:fa:4a:00:
                    7f:dc:28:2b:b5:10:60:bc:d8:55:c4:f5:c7:dc:09:
                    6e:e8:62:ca:c4:1c:0e:18:21:97:fd:dd:a7:3f:15:
                    f2:99:e0:17:40:e1:79:52:96:8c:15:1b:af:90:50:
                    d5:d7:b0:be:48:a2:48:b5:2c:fd:cc:e9:b4:26:09:
                    c1:60:1e:02:fb:0d:ae:80:e9:5b:50:7f:60:0b:26:
                    a0:19
                Exponent: 65537 (0x10001)
        X509v3 extensions:
            X509v3 Basic Constraints: 
                CA:FALSE
            Netscape Comment: 
                OpenSSL Generated Certificate
            X509v3 Subject Key Identifier: 
                C4:5D:83:4C:3C:87:9D:5E:93:CF:86:E1:BA:49:FC:B7:04:79:ED:CF
            X509v3 Authority Key Identifier: 
                keyid:0C:B7:91:C7:E7:0E:7B:17:4C:0C:7B:C4:96:38:C2:38:8E:6A:53:28

    Signature Algorithm: sha256WithRSAEncryption
         41:9b:a2:fd:5e:7d:42:27:9b:09:f7:00:01:58:d6:b3:aa:19:
         79:d7:68:4e:6f:7e:d5:f5:9e:55:ba:b5:07:6e:d0:96:14:80:
         ba:cd:8e:ed:9e:2f:06:f9:c8:53:6d:f0:5b:33:1e:6d:d2:3d:
         13:db:bc:0e:a2:db:ed:07:c2:f2:c5:e3:8e:4e:57:be:01:8c:
         5b:9a:80:b6:40:b5:46:94:15:9b:a2:73:78:04:26:de:17:d6:
         a0:ba:77:8b:b5:31:ae:22:33:d6:f8:22:bd:1f:3c:7d:1a:7e:
         94:ac:1a:1d:36:4a:a4:8d:fb:33:9f:00:64:6d:9a:da:6a:06:
         4d:5f:00:9c:e7:28:44:41:dd:ed:85:c4:34:05:82:89:d6:e9:
         f1:a2:ef:a5:49:7c:3f:fc:0c:9b:4e:59:0c:09:4b:a3:b6:e4:
         76:72:a6:eb:ec:46:3c:23:12:d6:7f:86:6a:f3:6e:3e:55:1d:
         77:b0:77:84:24:8b:fc:9e:42:de:81:7c:35:3b:22:df:a9:c2:
         10:e5:40:e4:2a:6f:1b:f2:b0:4f:a3:c1:b9:7f:0f:ff:ed:3e:
         0d:79:5c:bb:f2:42:25:73:0e:26:f2:ec:1b:2f:39:e7:5f:86:
         02:d4:24:ec:e4:32:55:3b:9c:76:7f:9c:48:42:42:84:9a:35:
         1f:38:73:d7
-----BEGIN CERTIFICATE-----
MIID0zCCArugAwIBAgIBFzANBgkqhkiG9w0BAQsFADB0MQswCQYDVQQGEwJTRzEL
MAkGA1UECAwCU0cxEjAQBgNVBAcMCVNpbmdhcG9yZTEPMA0GA1UECgwGU2VjTGFi
MQwwCgYDVQQLDANXZWIxJTAjBgkqhkiG9w0BCQEWFmFkbWluQGR1bW15Y2VydGxh
Yi5jb20wHhcNMTUwMzE2MjAwMTEyWhcNMTYwMzE1MjAwMTEyWjBpMQswCQYDVQQG
EwJTRzELMAkGA1UECAwCU0cxDzANBgNVBAoMBlNlY0xhYjEMMAoGA1UECwwDV2Vi
MRAwDgYDVQQDDAdibTIuY29tMRwwGgYJKoZIhvcNAQkBFg1hZG1pbkBibTIuY29t
MIIBIjANBgkqhkiG9w0BAQEFAAOCAQ8AMIIBCgKCAQEA07LMSXaqttMGJXHPcoLF
EflM7UtVqteIAAgPiJfK1IZBdYgVIcC2SmyO5BdDk3I6CCf78P2T8zzcGl81u7V7
WON+Ni9tMCw+XIp1ESFaDnqb44XRxZxU0fsGfwIdVprAnS2zJw32we3A5X6wHPl+
oOumO0E0beq0gPIY+xaJFfkfWwtQHyAxT+T65Y478Z9XXZLuUK+xqxLUN/BvfbU/
2mUk+codB1TzGlAA8EHM3pX6SgB/3CgrtRBgvNhVxPXH3Alu6GLKxBwOGCGX/d2n
PxXymeAXQOF5UpaMFRuvkFDV17C+SKJItSz9zOm0JgnBYB4C+w2ugOlbUH9gCyag
GQIDAQABo3sweTAJBgNVHRMEAjAAMCwGCWCGSAGG+EIBDQQfFh1PcGVuU1NMIEdl
bmVyYXRlZCBDZXJ0aWZpY2F0ZTAdBgNVHQ4EFgQUxF2DTDyHnV6Tz4bhukn8twR5
7c8wHwYDVR0jBBgwFoAUDLeRx+cOexdMDHvEljjCOI5qUygwDQYJKoZIhvcNAQEL
BQADggEBAEGbov1efUInmwn3AAFY1rOqGXnXaE5vftX1nlW6tQdu0JYUgLrNju2e
Lwb5yFNt8FszHm3SPRPbvA6i2+0HwvLF445OV74BjFuagLZAtUaUFZuic3gEJt4X
1qC6d4u1Ma4iM9b4Ir0fPH0afpSsGh02SqSN+zOfAGRtmtpqBk1fAJznKERB3e2F
xDQFgonW6fGi76VJfD/8DJtOWQwJS6O25HZypuvsRjwjEtZ/hmrzbj5VHXewd4Qk
i/yeQt6BfDU7It+pwhDlQOQqbxvysE+jwbl/D//tPg15XLvyQiVzDiby7BsvOedf
hgLUJOzkMlU7nHZ/nEhCQoSaNR84c9c=
-----END CERTIFICATE-----
