Certificate:
    Data:
        Version: 3 (0x2)
        Serial Number: 24 (0x18)
    Signature Algorithm: sha256WithRSAEncryption
        Issuer: C=SG, ST=SG, L=Singapore, O=SecLab, OU=Web/emailAddress=admin@dummycertlab.com
        Validity
            Not Before: Mar 16 20:01:29 2015 GMT
            Not After : Mar 15 20:01:29 2016 GMT
        Subject: C=SG, ST=SG, O=SecLab, OU=Web, CN=bm3.com/emailAddress=admin@bm3.com
        Subject Public Key Info:
            Public Key Algorithm: rsaEncryption
                Public-Key: (2048 bit)
                Modulus:
                    00:a1:1b:98:db:60:12:76:ea:36:3b:f1:33:3a:c0:
                    bb:ca:b3:39:ac:e4:d3:52:54:45:0d:b2:18:00:19:
                    24:9c:ae:7e:d9:a8:35:fd:dc:30:78:0e:b4:e2:80:
                    be:63:ec:9e:f2:12:c5:8a:9a:9c:8b:73:93:7f:b8:
                    b5:1a:f8:22:5f:e3:28:b7:96:78:0e:08:41:e7:f7:
                    18:21:57:d3:f1:03:22:5c:ed:24:0c:fe:33:bd:37:
                    36:ba:e5:65:4c:81:a7:9d:fd:3a:ca:72:d7:dd:a4:
                    03:4f:d3:07:dd:46:31:ae:9a:e0:f6:25:2b:24:54:
                    8a:28:e9:90:18:88:3e:79:05:49:e7:f8:21:44:fe:
                    e0:16:6c:bd:c5:ae:48:06:75:f0:3f:24:09:05:99:
                    de:70:6e:77:1f:d6:0a:25:63:3f:78:78:a0:39:05:
                    69:9c:09:b8:68:e7:2e:c6:66:6c:35:e7:ee:3c:d6:
                    11:0b:1e:0d:84:46:04:5d:52:31:6d:c7:64:3f:d8:
                    9f:a6:01:77:fb:f7:f2:d5:47:41:4b:17:10:21:2c:
                    4f:9c:a7:0f:84:61:09:f9:d6:5c:90:0a:74:9f:51:
                    6e:83:51:a5:cc:59:86:ce:ff:d6:52:39:86:62:67:
                    53:62:67:d1:0c:37:7f:4c:66:84:2a:c9:d4:dc:d5:
                    02:71
                Exponent: 65537 (0x10001)
        X509v3 extensions:
            X509v3 Basic Constraints: 
                CA:FALSE
            Netscape Comment: 
                OpenSSL Generated Certificate
            X509v3 Subject Key Identifier: 
                D2:06:5C:F4:99:FB:31:DB:8E:0A:F7:D1:31:49:48:39:01:79:48:9C
            X509v3 Authority Key Identifier: 
                keyid:0C:B7:91:C7:E7:0E:7B:17:4C:0C:7B:C4:96:38:C2:38:8E:6A:53:28

    Signature Algorithm: sha256WithRSAEncryption
         28:cb:29:02:0d:30:1a:36:c2:b3:53:c4:a3:a6:89:47:2b:44:
         b5:6b:e3:18:a0:3c:3e:fd:65:af:4e:73:fd:a1:c9:81:8d:08:
         a2:ce:5f:57:b4:4e:44:9e:df:76:f4:01:7d:9a:72:53:06:6e:
         10:06:45:8c:84:cb:9b:c9:dc:08:c7:15:71:bb:5a:e3:65:50:
         e4:1b:6b:19:30:0b:94:96:43:90:07:b4:05:7e:76:7a:f9:69:
         17:e8:b7:3b:52:1e:2a:c5:f6:b9:28:89:e4:60:2f:87:50:67:
         05:36:d7:be:85:44:7e:18:bb:0e:b3:4b:33:67:76:32:5a:ea:
         bd:0e:67:7a:d0:cb:7a:9a:b5:07:e5:46:30:ee:0f:a4:a9:09:
         9d:f9:cf:f2:7f:fb:61:0a:71:4c:41:44:37:07:8e:19:7c:84:
         b0:a6:76:64:b3:06:b2:70:43:cc:7d:15:03:75:aa:24:80:ce:
         4a:bb:f5:5f:34:d6:8a:aa:39:b0:94:23:d8:19:c3:f2:4c:aa:
         39:b5:e8:6c:31:5c:8c:2d:e3:55:ac:6a:89:19:a8:93:95:a8:
         4a:83:90:28:d3:67:b4:dc:36:b3:c4:9f:d5:2a:6f:00:e1:fc:
         8e:e4:05:fd:67:9e:4b:fd:b0:a3:d1:f8:21:35:df:f7:fa:5b:
         39:6d:48:6c
-----BEGIN CERTIFICATE-----
MIID0zCCArugAwIBAgIBGDANBgkqhkiG9w0BAQsFADB0MQswCQYDVQQGEwJTRzEL
MAkGA1UECAwCU0cxEjAQBgNVBAcMCVNpbmdhcG9yZTEPMA0GA1UECgwGU2VjTGFi
MQwwCgYDVQQLDANXZWIxJTAjBgkqhkiG9w0BCQEWFmFkbWluQGR1bW15Y2VydGxh
Yi5jb20wHhcNMTUwMzE2MjAwMTI5WhcNMTYwMzE1MjAwMTI5WjBpMQswCQYDVQQG
EwJTRzELMAkGA1UECAwCU0cxDzANBgNVBAoMBlNlY0xhYjEMMAoGA1UECwwDV2Vi
MRAwDgYDVQQDDAdibTMuY29tMRwwGgYJKoZIhvcNAQkBFg1hZG1pbkBibTMuY29t
MIIBIjANBgkqhkiG9w0BAQEFAAOCAQ8AMIIBCgKCAQEAoRuY22ASduo2O/EzOsC7
yrM5rOTTUlRFDbIYABkknK5+2ag1/dwweA604oC+Y+ye8hLFipqci3OTf7i1Gvgi
X+Mot5Z4DghB5/cYIVfT8QMiXO0kDP4zvTc2uuVlTIGnnf06ynLX3aQDT9MH3UYx
rprg9iUrJFSKKOmQGIg+eQVJ5/ghRP7gFmy9xa5IBnXwPyQJBZnecG53H9YKJWM/
eHigOQVpnAm4aOcuxmZsNefuPNYRCx4NhEYEXVIxbcdkP9ifpgF3+/fy1UdBSxcQ
ISxPnKcPhGEJ+dZckAp0n1Fug1GlzFmGzv/WUjmGYmdTYmfRDDd/TGaEKsnU3NUC
cQIDAQABo3sweTAJBgNVHRMEAjAAMCwGCWCGSAGG+EIBDQQfFh1PcGVuU1NMIEdl
bmVyYXRlZCBDZXJ0aWZpY2F0ZTAdBgNVHQ4EFgQU0gZc9Jn7MduOCvfRMUlIOQF5
SJwwHwYDVR0jBBgwFoAUDLeRx+cOexdMDHvEljjCOI5qUygwDQYJKoZIhvcNAQEL
BQADggEBACjLKQINMBo2wrNTxKOmiUcrRLVr4xigPD79Za9Oc/2hyYGNCKLOX1e0
TkSe33b0AX2aclMGbhAGRYyEy5vJ3AjHFXG7WuNlUOQbaxkwC5SWQ5AHtAV+dnr5
aRfotztSHirF9rkoieRgL4dQZwU2176FRH4Yuw6zSzNndjJa6r0OZ3rQy3qatQfl
RjDuD6SpCZ35z/J/+2EKcUxBRDcHjhl8hLCmdmSzBrJwQ8x9FQN1qiSAzkq79V80
1oqqObCUI9gZw/JMqjm16GwxXIwt41WsaokZqJOVqEqDkCjTZ7TcNrPEn9UqbwDh
/I7kBf1nnkv9sKPR+CE13/f6WzltSGw=
-----END CERTIFICATE-----
