Certificate:
    Data:
        Version: 3 (0x2)
        Serial Number: 25 (0x19)
    Signature Algorithm: sha256WithRSAEncryption
        Issuer: C=SG, ST=SG, L=Singapore, O=SecLab, OU=Web/emailAddress=admin@dummycertlab.com
        Validity
            Not Before: Mar 16 20:01:46 2015 GMT
            Not After : Mar 15 20:01:46 2016 GMT
        Subject: C=SG, ST=SG, O=SecLab, OU=Web, CN=bm4.com/emailAddress=admin@bm4.com
        Subject Public Key Info:
            Public Key Algorithm: rsaEncryption
                Public-Key: (2048 bit)
                Modulus:
                    00:bf:7a:73:ae:35:10:60:cf:d4:25:ea:ca:2d:19:
                    83:51:6e:27:e4:7d:4d:2c:c0:5c:0e:82:6b:3d:d1:
                    79:f7:fc:85:f5:a5:2a:3b:db:98:29:f3:e4:7e:f8:
                    b4:fa:9d:29:e9:a0:e2:f2:60:e5:9e:f3:ac:d5:50:
                    fb:47:09:e1:d9:75:75:08:dd:42:d0:78:43:ac:bb:
                    ca:c9:45:da:42:07:8d:48:13:fd:03:61:a5:e3:dc:
                    3f:d6:f9:68:44:e6:38:d5:c8:ba:3f:18:7d:28:ff:
                    6c:d5:1e:06:20:8c:4c:17:ad:f7:f5:26:cc:57:92:
                    65:19:9a:fa:a5:40:37:c1:7a:5b:fe:96:31:5f:73:
                    8e:94:b0:0b:09:76:ff:a4:97:7f:74:ac:f4:67:46:
                    98:a2:f8:42:13:10:af:ee:b9:1f:37:ee:9a:24:f3:
                    82:11:34:81:19:69:1d:e3:84:f2:27:2d:4b:bb:de:
                    c5:60:68:9c:6a:79:67:28:d0:a6:c9:60:80:ec:aa:
                    35:f9:a5:f4:de:bb:e1:86:40:7b:9d:98:40:f1:3e:
                    00:13:2e:ee:31:e8:bf:91:1b:3d:e7:95:7e:09:c7:
                    d7:39:0b:4b:e9:04:28:c2:5e:82:0c:cd:50:4f:ba:
                    9a:89:d2:08:16:45:a2:61:ff:0d:b4:8b:f1:ee:69:
                    1d:49
                Exponent: 65537 (0x10001)
        X509v3 extensions:
            X509v3 Basic Constraints: 
                CA:FALSE
            Netscape Comment: 
                OpenSSL Generated Certificate
            X509v3 Subject Key Identifier: 
                59:2A:AC:FE:4B:FB:34:B4:43:A4:41:54:A3:59:86:0E:1A:D8:63:6B
            X509v3 Authority Key Identifier: 
                keyid:0C:B7:91:C7:E7:0E:7B:17:4C:0C:7B:C4:96:38:C2:38:8E:6A:53:28

    Signature Algorithm: sha256WithRSAEncryption
         c2:ec:08:88:14:52:87:10:91:cf:95:44:56:8f:4c:66:af:91:
         09:a4:02:03:e8:98:da:09:fe:94:a6:2e:b1:7b:4a:8f:fe:97:
         e1:09:d4:6b:10:7b:ad:22:4d:69:c7:19:44:55:f6:fe:46:8e:
         22:76:55:0e:90:98:02:b3:d0:e3:72:94:97:21:3d:2f:2e:16:
         73:a4:db:ef:ea:fe:02:e5:00:1b:90:81:45:3b:1d:db:cb:72:
         8d:85:2b:42:49:a4:68:cf:8d:d8:b3:3f:8f:d0:ea:2d:39:38:
         f5:0d:7e:01:a0:4f:fb:62:70:be:dc:19:96:70:f0:fd:4f:e0:
         e9:5e:74:ea:46:85:c6:ed:fd:f6:6f:7a:d9:56:c8:20:bc:ab:
         0d:97:9a:94:44:ac:0a:97:5a:11:11:f8:af:d2:bf:93:c9:33:
         93:90:3c:3e:7c:8d:d1:e4:4f:44:b0:0f:08:03:c6:72:3c:f2:
         8d:f6:2c:84:f8:df:9d:a5:71:c2:1e:7c:32:56:18:04:6a:b1:
         95:d5:da:6a:04:e1:1a:68:6e:af:bd:af:da:f2:0b:e5:83:e2:
         22:62:e8:d0:9d:7a:ab:9e:aa:71:98:63:8a:e8:fa:75:40:51:
         19:f6:8e:98:e1:f5:1b:30:cb:5b:9d:0d:2d:10:0f:cc:b0:c7:
         68:80:2b:83
-----BEGIN CERTIFICATE-----
MIID0zCCArugAwIBAgIBGTANBgkqhkiG9w0BAQsFADB0MQswCQYDVQQGEwJTRzEL
MAkGA1UECAwCU0cxEjAQBgNVBAcMCVNpbmdhcG9yZTEPMA0GA1UECgwGU2VjTGFi
MQwwCgYDVQQLDANXZWIxJTAjBgkqhkiG9w0BCQEWFmFkbWluQGR1bW15Y2VydGxh
Yi5jb20wHhcNMTUwMzE2MjAwMTQ2WhcNMTYwMzE1MjAwMTQ2WjBpMQswCQYDVQQG
EwJTRzELMAkGA1UECAwCU0cxDzANBgNVBAoMBlNlY0xhYjEMMAoGA1UECwwDV2Vi
MRAwDgYDVQQDDAdibTQuY29tMRwwGgYJKoZIhvcNAQkBFg1hZG1pbkBibTQuY29t
MIIBIjANBgkqhkiG9w0BAQEFAAOCAQ8AMIIBCgKCAQEAv3pzrjUQYM/UJerKLRmD
UW4n5H1NLMBcDoJrPdF59/yF9aUqO9uYKfPkfvi0+p0p6aDi8mDlnvOs1VD7Rwnh
2XV1CN1C0HhDrLvKyUXaQgeNSBP9A2Gl49w/1vloROY41ci6Pxh9KP9s1R4GIIxM
F6339SbMV5JlGZr6pUA3wXpb/pYxX3OOlLALCXb/pJd/dKz0Z0aYovhCExCv7rkf
N+6aJPOCETSBGWkd44TyJy1Lu97FYGicanlnKNCmyWCA7Ko1+aX03rvhhkB7nZhA
8T4AEy7uMei/kRs955V+CcfXOQtL6QQowl6CDM1QT7qaidIIFkWiYf8NtIvx7mkd
SQIDAQABo3sweTAJBgNVHRMEAjAAMCwGCWCGSAGG+EIBDQQfFh1PcGVuU1NMIEdl
bmVyYXRlZCBDZXJ0aWZpY2F0ZTAdBgNVHQ4EFgQUWSqs/kv7NLRDpEFUo1mGDhrY
Y2swHwYDVR0jBBgwFoAUDLeRx+cOexdMDHvEljjCOI5qUygwDQYJKoZIhvcNAQEL
BQADggEBAMLsCIgUUocQkc+VRFaPTGavkQmkAgPomNoJ/pSmLrF7So/+l+EJ1GsQ
e60iTWnHGURV9v5GjiJ2VQ6QmAKz0ONylJchPS8uFnOk2+/q/gLlABuQgUU7HdvL
co2FK0JJpGjPjdizP4/Q6i05OPUNfgGgT/ticL7cGZZw8P1P4OledOpGhcbt/fZv
etlWyCC8qw2XmpRErAqXWhER+K/Sv5PJM5OQPD58jdHkT0SwDwgDxnI88o32LIT4
352lccIefDJWGARqsZXV2moE4Rpobq+9r9ryC+WD4iJi6NCdequeqnGYY4ro+nVA
URn2jpjh9Rswy1udDS0QD8ywx2iAK4M=
-----END CERTIFICATE-----
