Certificate:
    Data:
        Version: 3 (0x2)
        Serial Number: 26 (0x1a)
    Signature Algorithm: sha256WithRSAEncryption
        Issuer: C=SG, ST=SG, L=Singapore, O=SecLab, OU=Web/emailAddress=admin@dummycertlab.com
        Validity
            Not Before: Mar 16 20:01:55 2015 GMT
            Not After : Mar 15 20:01:55 2016 GMT
        Subject: C=SG, ST=SG, O=SecLab, OU=Web, CN=bm5.com/emailAddress=admin@bm5.com
        Subject Public Key Info:
            Public Key Algorithm: rsaEncryption
                Public-Key: (2048 bit)
                Modulus:
                    00:f3:9e:23:6e:4e:ec:f8:80:6f:5d:89:be:2e:4c:
                    8f:37:45:5d:c6:0e:65:ae:f0:96:84:32:71:6c:a0:
                    2e:6f:a5:e6:4e:eb:c6:7e:10:9f:7a:76:38:c8:9c:
                    ba:7e:00:57:51:22:8f:b7:d7:74:bc:e4:22:3c:e8:
                    16:b7:5f:97:16:df:d5:94:7e:ee:83:fb:a1:6f:4d:
                    26:f4:04:31:ce:e3:0c:82:59:d8:c0:61:33:33:a1:
                    7c:6b:94:e2:6f:86:1b:cc:51:ab:42:23:5d:7d:4b:
                    33:e8:2f:43:52:93:c5:7c:1f:ec:9d:b9:d0:fc:cc:
                    b0:3f:95:53:c7:91:0a:64:97:6c:69:57:39:b0:0f:
                    59:2c:6c:83:5c:9c:9e:fa:ea:85:e1:a9:65:fc:01:
                    e5:b0:85:5a:82:1a:21:79:32:82:4d:1a:4f:56:7b:
                    7f:0a:13:00:90:21:33:42:a5:87:64:ae:03:8a:e8:
                    ff:cb:b5:6c:45:cf:43:03:c5:74:d9:1f:68:40:5f:
                    bc:d6:20:da:f1:71:2f:bb:44:39:e0:68:1f:97:13:
                    8d:9a:8b:23:56:8c:23:26:fe:91:4a:13:4a:b8:72:
                    c3:0d:83:bf:bd:1a:ad:32:97:0d:01:c7:9d:21:cd:
                    87:77:81:4e:2f:0d:20:46:90:23:ec:06:91:5d:dc:
                    3a:41
                Exponent: 65537 (0x10001)
        X509v3 extensions:
            X509v3 Basic Constraints: 
                CA:FALSE
            Netscape Comment: 
                OpenSSL Generated Certificate
            X509v3 Subject Key Identifier: 
                15:52:A6:05:C6:ED:32:91:AC:80:AC:84:AA:E2:27:73:F0:B6:A8:A7
            X509v3 Authority Key Identifier: 
                keyid:0C:B7:91:C7:E7:0E:7B:17:4C:0C:7B:C4:96:38:C2:38:8E:6A:53:28

    Signature Algorithm: sha256WithRSAEncryption
         08:62:2f:da:55:70:ce:e6:e8:57:ca:49:47:26:77:14:17:35:
         84:c5:4a:b9:e3:6c:8b:71:b5:2b:6d:36:f2:21:ed:31:56:e6:
         ce:bb:df:67:0d:51:31:b8:d9:b3:74:cc:10:c7:02:c9:64:dc:
         09:fc:58:8a:26:13:17:2a:00:f3:22:3a:fb:5d:79:15:20:84:
         00:fb:da:9e:2c:34:a0:dc:3f:2f:e7:a2:ff:5f:60:6f:ab:10:
         0d:cb:d9:8b:ab:cb:2b:32:d1:f7:1e:ac:68:ad:41:af:a5:51:
         4a:2e:c8:63:17:3b:37:49:ca:35:55:93:23:5c:65:d6:7e:0d:
         f5:c0:e2:81:01:15:59:33:9a:74:c5:7e:f2:3d:ce:98:62:81:
         cc:98:61:c1:9c:df:2c:35:9c:75:ba:fd:26:62:6f:41:61:ea:
         2a:58:97:da:7c:3b:81:b3:87:75:e4:12:2c:9c:5b:e1:e3:4f:
         da:1c:f2:36:b1:8e:42:35:c6:02:47:33:08:8c:26:76:53:a4:
         db:b9:57:98:f7:3e:0c:da:71:84:1c:a1:77:c6:02:aa:b8:5e:
         0b:20:79:eb:23:1e:99:e4:f1:a8:92:3f:74:65:57:58:5a:0e:
         09:e7:9b:05:22:b6:9d:67:41:99:ed:d3:7e:cc:43:d2:fa:92:
         b4:dc:ca:d5
-----BEGIN CERTIFICATE-----
MIID0zCCArugAwIBAgIBGjANBgkqhkiG9w0BAQsFADB0MQswCQYDVQQGEwJTRzEL
MAkGA1UECAwCU0cxEjAQBgNVBAcMCVNpbmdhcG9yZTEPMA0GA1UECgwGU2VjTGFi
MQwwCgYDVQQLDANXZWIxJTAjBgkqhkiG9w0BCQEWFmFkbWluQGR1bW15Y2VydGxh
Yi5jb20wHhcNMTUwMzE2MjAwMTU1WhcNMTYwMzE1MjAwMTU1WjBpMQswCQYDVQQG
EwJTRzELMAkGA1UECAwCU0cxDzANBgNVBAoMBlNlY0xhYjEMMAoGA1UECwwDV2Vi
MRAwDgYDVQQDDAdibTUuY29tMRwwGgYJKoZIhvcNAQkBFg1hZG1pbkBibTUuY29t
MIIBIjANBgkqhkiG9w0BAQEFAAOCAQ8AMIIBCgKCAQEA854jbk7s+IBvXYm+LkyP
N0Vdxg5lrvCWhDJxbKAub6XmTuvGfhCfenY4yJy6fgBXUSKPt9d0vOQiPOgWt1+X
Ft/VlH7ug/uhb00m9AQxzuMMglnYwGEzM6F8a5Tib4YbzFGrQiNdfUsz6C9DUpPF
fB/snbnQ/MywP5VTx5EKZJdsaVc5sA9ZLGyDXJye+uqF4all/AHlsIVaghoheTKC
TRpPVnt/ChMAkCEzQqWHZK4Diuj/y7VsRc9DA8V02R9oQF+81iDa8XEvu0Q54Ggf
lxONmosjVowjJv6RShNKuHLDDYO/vRqtMpcNAcedIc2Hd4FOLw0gRpAj7AaRXdw6
QQIDAQABo3sweTAJBgNVHRMEAjAAMCwGCWCGSAGG+EIBDQQfFh1PcGVuU1NMIEdl
bmVyYXRlZCBDZXJ0aWZpY2F0ZTAdBgNVHQ4EFgQUFVKmBcbtMpGsgKyEquInc/C2
qKcwHwYDVR0jBBgwFoAUDLeRx+cOexdMDHvEljjCOI5qUygwDQYJKoZIhvcNAQEL
BQADggEBAAhiL9pVcM7m6FfKSUcmdxQXNYTFSrnjbItxtSttNvIh7TFW5s6732cN
UTG42bN0zBDHAslk3An8WIomExcqAPMiOvtdeRUghAD72p4sNKDcPy/nov9fYG+r
EA3L2Yuryysy0fcerGitQa+lUUouyGMXOzdJyjVVkyNcZdZ+DfXA4oEBFVkzmnTF
fvI9zphigcyYYcGc3yw1nHW6/SZib0Fh6ipYl9p8O4Gzh3XkEiycW+HjT9oc8jax
jkI1xgJHMwiMJnZTpNu5V5j3PgzacYQcoXfGAqq4XgsgeesjHpnk8aiSP3RlV1ha
DgnnmwUitp1nQZnt037MQ9L6krTcytU=
-----END CERTIFICATE-----
