Certificate:
    Data:
        Version: 3 (0x2)
        Serial Number: 20 (0x14)
    Signature Algorithm: sha256WithRSAEncryption
        Issuer: C=SG, ST=SG, L=Singapore, O=SecLab, OU=Web/emailAddress=admin@dummycertlab.com
        Validity
            Not Before: Mar 14 11:45:08 2015 GMT
            Not After : Mar 13 11:45:08 2016 GMT
        Subject: C=SG, ST=SG, O=SecLab, OU=Web, CN=own5.com/emailAddress=admin@own5.com
        Subject Public Key Info:
            Public Key Algorithm: rsaEncryption
                Public-Key: (2047 bit)
                Modulus:
                    52:9f:5b:73:c3:d2:72:2a:fa:7a:78:eb:a5:be:25:
                    5a:a6:ee:db:74:5e:b9:fe:a9:13:37:a5:ce:59:72:
                    c2:db:e3:84:17:64:f8:5a:97:d7:a4:77:16:20:ee:
                    32:1a:0f:d8:3c:10:93:0a:6a:44:7d:e1:58:4b:c4:
                    12:ad:9c:3d:ea:3f:9c:c4:cd:ae:46:2d:83:01:c4:
                    29:51:8f:b6:81:53:e3:d4:ad:c2:31:7c:9e:a9:c8:
                    7b:b4:63:27:f3:3f:c6:da:f5:80:f7:ce:a3:92:ee:
                    73:8b:21:0c:25:74:87:71:cb:4c:57:f3:65:b0:1b:
                    a7:c1:cc:88:15:ad:47:1d:d4:4c:eb:a0:4b:5e:f1:
                    46:f7:d7:9a:d7:49:de:79:3f:b7:7a:7a:f4:c0:d2:
                    7f:ef:ab:05:44:87:a6:7f:c5:4a:2a:e3:57:d5:dc:
                    c1:d6:5a:a8:8b:51:d0:77:f7:c0:c2:00:a9:cf:40:
                    95:2a:5b:d9:3b:1c:b8:54:3c:70:8c:3e:a9:36:4c:
                    df:a9:a9:9a:7f:76:21:d0:9d:d6:96:8f:b0:03:e2:
                    e4:99:94:0f:31:79:75:22:60:e5:56:27:f0:a4:01:
                    84:c7:87:2b:5b:a4:3b:43:6b:bb:10:bf:8c:01:c3:
                    4f:54:30:7e:d7:24:68:e0:e2:7d:60:93:57:8f:4f:
                    4d
                Exponent: 65537 (0x10001)
        X509v3 extensions:
            X509v3 Basic Constraints: 
                CA:FALSE
            Netscape Comment: 
                OpenSSL Generated Certificate
            X509v3 Subject Key Identifier: 
                A3:59:71:EB:C8:5B:EE:5E:53:3F:CA:5A:06:07:B8:0F:04:30:BA:CB
            X509v3 Authority Key Identifier: 
                keyid:0C:B7:91:C7:E7:0E:7B:17:4C:0C:7B:C4:96:38:C2:38:8E:6A:53:28

    Signature Algorithm: sha256WithRSAEncryption
         cf:23:61:9a:12:da:59:03:19:82:e1:21:1f:14:f2:5a:af:28:
         2d:32:b0:cf:85:48:d0:70:66:8c:cd:8d:12:29:04:68:a7:43:
         a8:9f:57:dc:5c:13:9e:c0:59:a2:1c:86:5e:22:e0:81:ed:0a:
         72:e4:34:9c:68:d4:99:8f:36:16:40:79:72:4c:ca:45:ff:8a:
         d3:b5:7b:b9:60:35:f6:2e:b9:b7:32:52:a5:74:ca:13:55:07:
         c9:40:e7:ae:19:97:6b:01:04:51:5c:5d:47:dd:ac:ab:f9:3d:
         94:5f:f4:3f:7a:59:93:56:23:06:6e:55:16:73:c7:08:c8:22:
         36:9c:cf:d9:f4:38:d6:0e:da:ee:3f:c3:d4:c3:6d:b6:4b:a4:
         54:58:c6:b9:eb:e3:5b:1e:ff:59:c2:0f:7a:0a:e6:34:80:53:
         13:08:f6:b9:4c:2a:3f:dd:96:bc:20:90:a3:d5:11:49:81:7a:
         41:ac:ba:04:cf:1f:3f:b9:c4:71:75:0c:bd:1a:76:20:cb:6a:
         f3:9b:52:c4:ce:6e:e6:d0:07:76:de:14:98:92:64:3e:44:e1:
         37:ea:f8:42:8b:b4:a0:09:54:90:e5:13:de:fd:52:66:6d:58:
         44:ac:24:ab:33:9c:46:24:87:c0:45:d4:ea:94:ad:2c:cc:4b:
         4e:51:dc:3f
-----BEGIN CERTIFICATE-----
MIID1DCCArygAwIBAgIBFDANBgkqhkiG9w0BAQsFADB0MQswCQYDVQQGEwJTRzEL
MAkGA1UECAwCU0cxEjAQBgNVBAcMCVNpbmdhcG9yZTEPMA0GA1UECgwGU2VjTGFi
MQwwCgYDVQQLDANXZWIxJTAjBgkqhkiG9w0BCQEWFmFkbWluQGR1bW15Y2VydGxh
Yi5jb20wHhcNMTUwMzE0MTE0NTA4WhcNMTYwMzEzMTE0NTA4WjBrMQswCQYDVQQG
EwJTRzELMAkGA1UECAwCU0cxDzANBgNVBAoMBlNlY0xhYjEMMAoGA1UECwwDV2Vi
MREwDwYDVQQDDAhhcHA5LmNvbTEdMBsGCSqGSIb3DQEJARYOYWRtaW5AYXBwOS5j
b20wggEhMA0GCSqGSIb3DQEBAQUAA4IBDgAwggEJAoIBAFKfW3PD0nIq+np466W+
JVqm7tt0Xrn+qRM3pc5ZcsLb44QXZPhal9ekdxYg7jIaD9g8EJMKakR94VhLxBKt
nD3qP5zEza5GLYMBxClRj7aBU+PUrcIxfJ6pyHu0YyfzP8ba9YD3zqOS7nOLIQwl
dIdxy0xX82WwG6fBzIgVrUcd1EzroEte8Ub315rXSd55P7d6evTA0n/vqwVEh6Z/
xUoq41fV3MHWWqiLUdB398DCAKnPQJUqW9k7HLhUPHCMPqk2TN+pqZp/diHQndaW
j7AD4uSZlA8xeXUiYOVWJ/CkAYTHhytbpDtDa7sQv4wBw09UMH7XJGjg4n1gk1eP
T00CAwEAAaN7MHkwCQYDVR0TBAIwADAsBglghkgBhvhCAQ0EHxYdT3BlblNTTCBH
ZW5lcmF0ZWQgQ2VydGlmaWNhdGUwHQYDVR0OBBYEFKNZcevIW+5eUz/KWgYHuA8E
MLrLMB8GA1UdIwQYMBaAFAy3kcfnDnsXTAx7xJY4wjiOalMoMA0GCSqGSIb3DQEB
CwUAA4IBAQDPI2GaEtpZAxmC4SEfFPJarygtMrDPhUjQcGaMzY0SKQRop0Oon1fc
XBOewFmiHIZeIuCB7Qpy5DScaNSZjzYWQHlyTMpF/4rTtXu5YDX2Lrm3MlKldMoT
VQfJQOeuGZdrAQRRXF1H3ayr+T2UX/Q/elmTViMGblUWc8cIyCI2nM/Z9DjWDtru
P8PUw222S6RUWMa56+NbHv9Zwg96CuY0gFMTCPa5TCo/3Za8IJCj1RFJgXpBrLoE
zx8/ucRxdQy9GnYgy2rzm1LEzm7m0Ad23hSYkmQ+ROE36vhCi7SgCVSQ5RPe/VJm
bVhErCSrM5xGJIfARdTqlK0szEtOUdw/
-----END CERTIFICATE-----
